ARM GAS  C:\Users\halcyon\AppData\Local\Temp\ccgaMkHw.s 			page 1


   1              		.cpu cortex-m7
   2              		.eabi_attribute 28, 1
   3              		.eabi_attribute 20, 1
   4              		.eabi_attribute 21, 1
   5              		.eabi_attribute 23, 3
   6              		.eabi_attribute 24, 1
   7              		.eabi_attribute 25, 1
   8              		.eabi_attribute 26, 1
   9              		.eabi_attribute 30, 2
  10              		.eabi_attribute 34, 1
  11              		.eabi_attribute 18, 4
  12              		.file	"SimpleSampler.cpp"
  13              		.text
  14              	.Ltext0:
  15              		.cfi_sections	.debug_frame
  16              		.section	.text._ZN5daisy9ParameterD2Ev,"axG",%progbits,_ZN5daisy9ParameterD5Ev,comdat
  17              		.align	1
  18              		.p2align 2,,3
  19              		.weak	_ZN5daisy9ParameterD2Ev
  20              		.arch armv7e-m
  21              		.syntax unified
  22              		.thumb
  23              		.thumb_func
  24              		.fpu fpv5-d16
  26              	_ZN5daisy9ParameterD2Ev:
  27              	.LVL0:
  28              	.LFB1689:
  29              		.file 1 "../../libDaisy//src/hid/parameter.h"
   1:../../libDaisy//src/hid/parameter.h **** #pragma once
   2:../../libDaisy//src/hid/parameter.h **** #include <stdint.h>
   3:../../libDaisy//src/hid/parameter.h **** #include "hid/ctrl.h"
   4:../../libDaisy//src/hid/parameter.h **** 
   5:../../libDaisy//src/hid/parameter.h **** namespace daisy
   6:../../libDaisy//src/hid/parameter.h **** {
   7:../../libDaisy//src/hid/parameter.h **** /** @addtogroup controls
   8:../../libDaisy//src/hid/parameter.h ****     @{
   9:../../libDaisy//src/hid/parameter.h **** */
  10:../../libDaisy//src/hid/parameter.h **** 
  11:../../libDaisy//src/hid/parameter.h **** /**      Simple parameter mapping tool that takes a 0-1 input from an hid_ctrl. */
  12:../../libDaisy//src/hid/parameter.h **** class Parameter
  13:../../libDaisy//src/hid/parameter.h **** {
  14:../../libDaisy//src/hid/parameter.h ****   public:
  15:../../libDaisy//src/hid/parameter.h ****     /** Curves are applied to the output signal */
  16:../../libDaisy//src/hid/parameter.h ****     enum Curve
  17:../../libDaisy//src/hid/parameter.h ****     {
  18:../../libDaisy//src/hid/parameter.h ****         LINEAR,      /**< Linear curve */
  19:../../libDaisy//src/hid/parameter.h ****         EXPONENTIAL, /**< Exponential curve */
  20:../../libDaisy//src/hid/parameter.h ****         LOGARITHMIC, /**<  Logarithmic curve */
  21:../../libDaisy//src/hid/parameter.h ****         CUBE,        /**< Cubic curve */
  22:../../libDaisy//src/hid/parameter.h ****         LAST,        /**< Final enum element. */
  23:../../libDaisy//src/hid/parameter.h ****     };
  24:../../libDaisy//src/hid/parameter.h ****     /** Constructor */
  25:../../libDaisy//src/hid/parameter.h ****     Parameter() {}
  26:../../libDaisy//src/hid/parameter.h ****     /** Destructor */
  27:../../libDaisy//src/hid/parameter.h ****     ~Parameter() {}
  30              		.loc 1 27 5 view -0
  31              		.cfi_startproc
ARM GAS  C:\Users\halcyon\AppData\Local\Temp\ccgaMkHw.s 			page 2


  32              		@ args = 0, pretend = 0, frame = 0
  33              		@ frame_needed = 0, uses_anonymous_args = 0
  34              		@ link register save eliminated.
  35              	.LBB609:
  36              	.LBI609:
  37              		.file 2 "../../libDaisy//src/hid/ctrl.h"
   1:../../libDaisy//src/hid/ctrl.h **** #pragma once
   2:../../libDaisy//src/hid/ctrl.h **** #ifndef DSY_KNOB_H
   3:../../libDaisy//src/hid/ctrl.h **** #define DSY_KNOB_H /**< & */
   4:../../libDaisy//src/hid/ctrl.h **** #include <stdint.h>
   5:../../libDaisy//src/hid/ctrl.h **** 
   6:../../libDaisy//src/hid/ctrl.h **** #ifdef __cplusplus
   7:../../libDaisy//src/hid/ctrl.h **** namespace daisy
   8:../../libDaisy//src/hid/ctrl.h **** {
   9:../../libDaisy//src/hid/ctrl.h **** /**
  10:../../libDaisy//src/hid/ctrl.h ****     @brief Hardware Interface for control inputs \n 
  11:../../libDaisy//src/hid/ctrl.h ****     Primarily designed for ADC input controls such as \n 
  12:../../libDaisy//src/hid/ctrl.h ****     potentiometers, and control voltage. \n 
  13:../../libDaisy//src/hid/ctrl.h ****     @author Stephen Hensley
  14:../../libDaisy//src/hid/ctrl.h ****     @date November 2019
  15:../../libDaisy//src/hid/ctrl.h ****     @ingroup controls
  16:../../libDaisy//src/hid/ctrl.h **** */
  17:../../libDaisy//src/hid/ctrl.h **** class AnalogControl
  18:../../libDaisy//src/hid/ctrl.h **** {
  19:../../libDaisy//src/hid/ctrl.h ****   public:
  20:../../libDaisy//src/hid/ctrl.h ****     /** Constructor */
  21:../../libDaisy//src/hid/ctrl.h ****     AnalogControl() {}
  22:../../libDaisy//src/hid/ctrl.h ****     /** destructor */
  23:../../libDaisy//src/hid/ctrl.h ****     ~AnalogControl() {}
  38              		.loc 2 23 5 view .LVU1
  39              		.loc 2 23 5 is_stmt 0 view .LVU2
  40              	.LBE609:
  41              		.loc 1 27 19 view .LVU3
  42 0000 7047     		bx	lr
  43              		.cfi_endproc
  44              	.LFE1689:
  46              		.weak	_ZN5daisy9ParameterD1Ev
  47              		.thumb_set _ZN5daisy9ParameterD1Ev,_ZN5daisy9ParameterD2Ev
  48 0002 00BF     		.section	.text._ZN5daisy12SdmmcHandlerD2Ev,"axG",%progbits,_ZN5daisy12SdmmcHandlerD5Ev,comdat
  49              		.align	1
  50              		.p2align 2,,3
  51              		.weak	_ZN5daisy12SdmmcHandlerD2Ev
  52              		.syntax unified
  53              		.thumb
  54              		.thumb_func
  55              		.fpu fpv5-d16
  57              	_ZN5daisy12SdmmcHandlerD2Ev:
  58              	.LVL1:
  59              	.LFB1722:
  60              		.file 3 "../../libDaisy//src/per/sdmmc.h"
   1:../../libDaisy//src/per/sdmmc.h **** /*
   2:../../libDaisy//src/per/sdmmc.h **** TODO: 
   3:../../libDaisy//src/per/sdmmc.h **** - Implement configuration (currently all settings are fixed).
   4:../../libDaisy//src/per/sdmmc.h **** */
   5:../../libDaisy//src/per/sdmmc.h **** #pragma once
   6:../../libDaisy//src/per/sdmmc.h **** #ifndef DSY_SDMMC_H
   7:../../libDaisy//src/per/sdmmc.h **** #define DSY_SDMMC_H /**< macro */
ARM GAS  C:\Users\halcyon\AppData\Local\Temp\ccgaMkHw.s 			page 3


   8:../../libDaisy//src/per/sdmmc.h **** 
   9:../../libDaisy//src/per/sdmmc.h **** #include <stdint.h>
  10:../../libDaisy//src/per/sdmmc.h **** 
  11:../../libDaisy//src/per/sdmmc.h **** 
  12:../../libDaisy//src/per/sdmmc.h **** namespace daisy
  13:../../libDaisy//src/per/sdmmc.h **** {
  14:../../libDaisy//src/per/sdmmc.h **** /** @ingroup peripheral
  15:../../libDaisy//src/per/sdmmc.h ****     @{
  16:../../libDaisy//src/per/sdmmc.h ****     */
  17:../../libDaisy//src/per/sdmmc.h **** 
  18:../../libDaisy//src/per/sdmmc.h **** /** Configuration for interfacing with SD cards.
  19:../../libDaisy//src/per/sdmmc.h ****  *  Currently only supports operation using FatFS filesystem
  20:../../libDaisy//src/per/sdmmc.h ****  * 
  21:../../libDaisy//src/per/sdmmc.h ****  *  Only SDMMC1 is supported at this time.
  22:../../libDaisy//src/per/sdmmc.h ****  *
  23:../../libDaisy//src/per/sdmmc.h ****  *  Pins are fixed to the following:
  24:../../libDaisy//src/per/sdmmc.h ****  *  PC12 - SDMMC1 CK
  25:../../libDaisy//src/per/sdmmc.h ****  *  PD2  - SDMMC1 CMD
  26:../../libDaisy//src/per/sdmmc.h ****  *  PC8  - SDMMC1 D0
  27:../../libDaisy//src/per/sdmmc.h ****  *  PC9  - SDMMC1 D1 (optional)
  28:../../libDaisy//src/per/sdmmc.h ****  *  PC10 - SDMMC1 D2 (optional)
  29:../../libDaisy//src/per/sdmmc.h ****  *  PC11 - SDMMC1 D3 (optional)
  30:../../libDaisy//src/per/sdmmc.h **** */
  31:../../libDaisy//src/per/sdmmc.h **** class SdmmcHandler
  32:../../libDaisy//src/per/sdmmc.h **** {
  33:../../libDaisy//src/per/sdmmc.h ****   public:
  34:../../libDaisy//src/per/sdmmc.h ****     /** Return values for the SdmmcHandler class */
  35:../../libDaisy//src/per/sdmmc.h ****     enum class Result
  36:../../libDaisy//src/per/sdmmc.h ****     {
  37:../../libDaisy//src/per/sdmmc.h ****         OK,
  38:../../libDaisy//src/per/sdmmc.h ****         ERROR,
  39:../../libDaisy//src/per/sdmmc.h ****     };
  40:../../libDaisy//src/per/sdmmc.h **** 
  41:../../libDaisy//src/per/sdmmc.h ****     /** Sets whether 4-bit mode or 1-bit mode is used for the SDMMC */
  42:../../libDaisy//src/per/sdmmc.h ****     enum class BusWidth
  43:../../libDaisy//src/per/sdmmc.h ****     {
  44:../../libDaisy//src/per/sdmmc.h ****         BITS_1, /**< Only 1 bit of data per clock is transferred */
  45:../../libDaisy//src/per/sdmmc.h ****         BITS_4, /**< 4-bits of parallel data for each clock pulse */
  46:../../libDaisy//src/per/sdmmc.h ****     };
  47:../../libDaisy//src/per/sdmmc.h **** 
  48:../../libDaisy//src/per/sdmmc.h ****     /** 
  49:../../libDaisy//src/per/sdmmc.h ****     Sets the desired clock speed of the SD card bus. \n 
  50:../../libDaisy//src/per/sdmmc.h ****     Initialization is always done at or below 400kHz, and then the user speed is set.
  51:../../libDaisy//src/per/sdmmc.h ****     */
  52:../../libDaisy//src/per/sdmmc.h ****     enum class Speed
  53:../../libDaisy//src/per/sdmmc.h ****     {
  54:../../libDaisy//src/per/sdmmc.h ****         SLOW, /**< 400kHz, initialization  performed at this rate, before moving to user value */
  55:../../libDaisy//src/per/sdmmc.h ****         MEDIUM_SLOW, /**< 12.5MHz - half of standard rate */
  56:../../libDaisy//src/per/sdmmc.h ****         STANDARD,    /**< 25MHz - DS (Default Speed for SDMMC) */
  57:../../libDaisy//src/per/sdmmc.h ****         FAST,        /**< 50MHz - HS (High Speed signaling) */
  58:../../libDaisy//src/per/sdmmc.h ****         VERY_FAST, /**< 100MHz - SDR50 Overclocked rate for maximum transfer rates */
  59:../../libDaisy//src/per/sdmmc.h ****     };
  60:../../libDaisy//src/per/sdmmc.h **** 
  61:../../libDaisy//src/per/sdmmc.h ****     struct Config
  62:../../libDaisy//src/per/sdmmc.h ****     {
  63:../../libDaisy//src/per/sdmmc.h ****         Speed    speed;
  64:../../libDaisy//src/per/sdmmc.h ****         BusWidth width;
ARM GAS  C:\Users\halcyon\AppData\Local\Temp\ccgaMkHw.s 			page 4


  65:../../libDaisy//src/per/sdmmc.h ****         bool
  66:../../libDaisy//src/per/sdmmc.h ****             clock_powersave; /**< When true, the clock will stop between transfers to save power. *
  67:../../libDaisy//src/per/sdmmc.h **** 
  68:../../libDaisy//src/per/sdmmc.h ****         /** Configures settings to their default settings */
  69:../../libDaisy//src/per/sdmmc.h ****         void Defaults()
  70:../../libDaisy//src/per/sdmmc.h ****         {
  71:../../libDaisy//src/per/sdmmc.h ****             speed           = Speed::FAST;
  72:../../libDaisy//src/per/sdmmc.h ****             width           = BusWidth::BITS_4;
  73:../../libDaisy//src/per/sdmmc.h ****             clock_powersave = false;
  74:../../libDaisy//src/per/sdmmc.h ****         }
  75:../../libDaisy//src/per/sdmmc.h ****     };
  76:../../libDaisy//src/per/sdmmc.h **** 
  77:../../libDaisy//src/per/sdmmc.h ****     SdmmcHandler() {}
  78:../../libDaisy//src/per/sdmmc.h ****     ~SdmmcHandler() {}
  61              		.loc 3 78 5 is_stmt 1 view -0
  62              		.cfi_startproc
  63              		@ args = 0, pretend = 0, frame = 0
  64              		@ frame_needed = 0, uses_anonymous_args = 0
  65              		@ link register save eliminated.
  66              		.loc 3 78 22 is_stmt 0 view .LVU5
  67 0000 7047     		bx	lr
  68              		.cfi_endproc
  69              	.LFE1722:
  71              		.weak	_ZN5daisy12SdmmcHandlerD1Ev
  72              		.thumb_set _ZN5daisy12SdmmcHandlerD1Ev,_ZN5daisy12SdmmcHandlerD2Ev
  73              		.section	.text._ZN5daisy8DaisyPodD2Ev,"axG",%progbits,_ZN5daisy8DaisyPodD5Ev,comdat
  74              		.align	1
  75              		.p2align 2,,3
  76              		.weak	_ZN5daisy8DaisyPodD2Ev
  77              		.syntax unified
  78              		.thumb
  79              		.thumb_func
  80              		.fpu fpv5-d16
  82              	_ZN5daisy8DaisyPodD2Ev:
  83              	.LVL2:
  84              	.LFB2564:
  85              		.file 4 "../../libDaisy//src/daisy_pod.h"
   1:../../libDaisy//src/daisy_pod.h **** #pragma once
   2:../../libDaisy//src/daisy_pod.h **** #ifndef DSY_POD_BSP_H
   3:../../libDaisy//src/daisy_pod.h **** #define DSY_POD_BSP_H
   4:../../libDaisy//src/daisy_pod.h **** 
   5:../../libDaisy//src/daisy_pod.h **** #include "daisy_seed.h"
   6:../../libDaisy//src/daisy_pod.h **** 
   7:../../libDaisy//src/daisy_pod.h **** namespace daisy
   8:../../libDaisy//src/daisy_pod.h **** {
   9:../../libDaisy//src/daisy_pod.h **** /**
  10:../../libDaisy//src/daisy_pod.h ****     @brief Class that handles initializing all of the hardware specific to the Daisy Patch Board. \
  11:../../libDaisy//src/daisy_pod.h ****     Helper funtions are also in place to provide easy access to built-in controls and peripherals.
  12:../../libDaisy//src/daisy_pod.h ****     @author Stephen Hensley
  13:../../libDaisy//src/daisy_pod.h ****     @date November 2019
  14:../../libDaisy//src/daisy_pod.h ****     @ingroup boards
  15:../../libDaisy//src/daisy_pod.h **** */
  16:../../libDaisy//src/daisy_pod.h **** class DaisyPod
  17:../../libDaisy//src/daisy_pod.h **** {
  18:../../libDaisy//src/daisy_pod.h ****   public:
  19:../../libDaisy//src/daisy_pod.h ****     /** Switches */
  20:../../libDaisy//src/daisy_pod.h ****     enum Sw
ARM GAS  C:\Users\halcyon\AppData\Local\Temp\ccgaMkHw.s 			page 5


  21:../../libDaisy//src/daisy_pod.h ****     {
  22:../../libDaisy//src/daisy_pod.h ****         BUTTON_1,    /** & */
  23:../../libDaisy//src/daisy_pod.h ****         BUTTON_2,    /** & */
  24:../../libDaisy//src/daisy_pod.h ****         BUTTON_LAST, /** &  */
  25:../../libDaisy//src/daisy_pod.h ****     };
  26:../../libDaisy//src/daisy_pod.h **** 
  27:../../libDaisy//src/daisy_pod.h ****     /** Knobs */
  28:../../libDaisy//src/daisy_pod.h ****     enum Knob
  29:../../libDaisy//src/daisy_pod.h ****     {
  30:../../libDaisy//src/daisy_pod.h ****         KNOB_1,    /** &  */
  31:../../libDaisy//src/daisy_pod.h ****         KNOB_2,    /** & */
  32:../../libDaisy//src/daisy_pod.h ****         KNOB_LAST, /** & */
  33:../../libDaisy//src/daisy_pod.h ****     };
  34:../../libDaisy//src/daisy_pod.h **** 
  35:../../libDaisy//src/daisy_pod.h ****     DaisyPod() {}
  36:../../libDaisy//src/daisy_pod.h ****     ~DaisyPod() {}
  86              		.loc 4 36 5 is_stmt 1 view -0
  87              		.cfi_startproc
  88              		@ args = 0, pretend = 0, frame = 0
  89              		@ frame_needed = 0, uses_anonymous_args = 0
  90              		@ link register save eliminated.
  91              	.LBB610:
  92              	.LBI610:
  93              		.file 5 "../../libDaisy//src/hid/midi.h"
   1:../../libDaisy//src/hid/midi.h **** #pragma once
   2:../../libDaisy//src/hid/midi.h **** #ifndef DSY_MIDI_H
   3:../../libDaisy//src/hid/midi.h **** #define DSY_MIDI_H
   4:../../libDaisy//src/hid/midi.h **** 
   5:../../libDaisy//src/hid/midi.h **** #include <stdint.h>
   6:../../libDaisy//src/hid/midi.h **** #include <stdlib.h>
   7:../../libDaisy//src/hid/midi.h **** #include <algorithm>
   8:../../libDaisy//src/hid/midi.h **** #include "per/uart.h"
   9:../../libDaisy//src/hid/midi.h **** #include "util/ringbuffer.h"
  10:../../libDaisy//src/hid/midi.h **** #include "util/FIFO.h"
  11:../../libDaisy//src/hid/midi.h **** #include "hid/midi_parser.h"
  12:../../libDaisy//src/hid/midi.h **** #include "hid/usb_midi.h"
  13:../../libDaisy//src/hid/midi.h **** #include "sys/dma.h"
  14:../../libDaisy//src/hid/midi.h **** #include "sys/system.h"
  15:../../libDaisy//src/hid/midi.h **** 
  16:../../libDaisy//src/hid/midi.h **** namespace daisy
  17:../../libDaisy//src/hid/midi.h **** {
  18:../../libDaisy//src/hid/midi.h **** /** @brief   Transport layer for sending and receiving MIDI data over UART
  19:../../libDaisy//src/hid/midi.h ****  *  @details This is the mode of communication used for TRS and DIN MIDI
  20:../../libDaisy//src/hid/midi.h ****  *           There is an additional 2kB of RAM data used within this class
  21:../../libDaisy//src/hid/midi.h ****  *           for processing bulk data from the UART peripheral
  22:../../libDaisy//src/hid/midi.h ****  *  @ingroup midi
  23:../../libDaisy//src/hid/midi.h **** */
  24:../../libDaisy//src/hid/midi.h **** class MidiUartTransport
  25:../../libDaisy//src/hid/midi.h **** {
  26:../../libDaisy//src/hid/midi.h ****   public:
  27:../../libDaisy//src/hid/midi.h ****     typedef void (*MidiRxParseCallback)(uint8_t* data,
  28:../../libDaisy//src/hid/midi.h ****                                         size_t   size,
  29:../../libDaisy//src/hid/midi.h ****                                         void*    context);
  30:../../libDaisy//src/hid/midi.h **** 
  31:../../libDaisy//src/hid/midi.h ****     MidiUartTransport() {}
  32:../../libDaisy//src/hid/midi.h ****     ~MidiUartTransport() {}
  33:../../libDaisy//src/hid/midi.h **** 
ARM GAS  C:\Users\halcyon\AppData\Local\Temp\ccgaMkHw.s 			page 6


  34:../../libDaisy//src/hid/midi.h ****     /** @brief Configuration structure for UART MIDI */
  35:../../libDaisy//src/hid/midi.h ****     struct Config
  36:../../libDaisy//src/hid/midi.h ****     {
  37:../../libDaisy//src/hid/midi.h ****         UartHandler::Config::Peripheral periph;
  38:../../libDaisy//src/hid/midi.h ****         dsy_gpio_pin                    rx;
  39:../../libDaisy//src/hid/midi.h ****         dsy_gpio_pin                    tx;
  40:../../libDaisy//src/hid/midi.h **** 
  41:../../libDaisy//src/hid/midi.h ****         /** Pointer to buffer for DMA UART rx byte transfer in background.
  42:../../libDaisy//src/hid/midi.h ****          *
  43:../../libDaisy//src/hid/midi.h ****          *  @details By default this uses a shared buffer in DMA_BUFFER_MEM_SECTION,
  44:../../libDaisy//src/hid/midi.h ****          *           which can only be utilized for a single UART peripheral. To
  45:../../libDaisy//src/hid/midi.h ****          *           use MIDI with multiple UART peripherals, you must provide your own
  46:../../libDaisy//src/hid/midi.h ****          *           buffer, allocated to a DMA-capable memory section.
  47:../../libDaisy//src/hid/midi.h ****          */
  48:../../libDaisy//src/hid/midi.h ****         uint8_t* rx_buffer;
  49:../../libDaisy//src/hid/midi.h **** 
  50:../../libDaisy//src/hid/midi.h ****         /** Size in bytes of rx_buffer.
  51:../../libDaisy//src/hid/midi.h ****          *
  52:../../libDaisy//src/hid/midi.h ****          *  @details This size determines the maximum Rx bytes readable by the UART in the backgrou
  53:../../libDaisy//src/hid/midi.h ****          *           By default it's set to the size of the default shared rx_buffer (256 bytes).
  54:../../libDaisy//src/hid/midi.h ****          *           While much smaller sizes can be used, data can get missed if the buffer is too
  55:../../libDaisy//src/hid/midi.h ****          */
  56:../../libDaisy//src/hid/midi.h ****         size_t rx_buffer_size;
  57:../../libDaisy//src/hid/midi.h **** 
  58:../../libDaisy//src/hid/midi.h ****         Config();
  59:../../libDaisy//src/hid/midi.h ****     };
  60:../../libDaisy//src/hid/midi.h **** 
  61:../../libDaisy//src/hid/midi.h ****     /** @brief Initialization of UART using config struct */
  62:../../libDaisy//src/hid/midi.h ****     inline void Init(Config config)
  63:../../libDaisy//src/hid/midi.h ****     {
  64:../../libDaisy//src/hid/midi.h ****         UartHandler::Config uart_config;
  65:../../libDaisy//src/hid/midi.h **** 
  66:../../libDaisy//src/hid/midi.h ****         //defaults
  67:../../libDaisy//src/hid/midi.h ****         uart_config.baudrate   = 31250;
  68:../../libDaisy//src/hid/midi.h ****         uart_config.stopbits   = UartHandler::Config::StopBits::BITS_1;
  69:../../libDaisy//src/hid/midi.h ****         uart_config.parity     = UartHandler::Config::Parity::NONE;
  70:../../libDaisy//src/hid/midi.h ****         uart_config.mode       = UartHandler::Config::Mode::TX_RX;
  71:../../libDaisy//src/hid/midi.h ****         uart_config.wordlength = UartHandler::Config::WordLength::BITS_8;
  72:../../libDaisy//src/hid/midi.h **** 
  73:../../libDaisy//src/hid/midi.h ****         //user settings
  74:../../libDaisy//src/hid/midi.h ****         uart_config.periph        = config.periph;
  75:../../libDaisy//src/hid/midi.h ****         uart_config.pin_config.rx = config.rx;
  76:../../libDaisy//src/hid/midi.h ****         uart_config.pin_config.tx = config.tx;
  77:../../libDaisy//src/hid/midi.h **** 
  78:../../libDaisy//src/hid/midi.h ****         rx_buffer      = config.rx_buffer;
  79:../../libDaisy//src/hid/midi.h ****         rx_buffer_size = config.rx_buffer_size;
  80:../../libDaisy//src/hid/midi.h **** 
  81:../../libDaisy//src/hid/midi.h ****         /** zero the buffer to ensure emptiness regardless of source memory */
  82:../../libDaisy//src/hid/midi.h ****         std::fill(rx_buffer, rx_buffer + rx_buffer_size, 0);
  83:../../libDaisy//src/hid/midi.h **** 
  84:../../libDaisy//src/hid/midi.h ****         uart_.Init(uart_config);
  85:../../libDaisy//src/hid/midi.h ****     }
  86:../../libDaisy//src/hid/midi.h **** 
  87:../../libDaisy//src/hid/midi.h ****     /** @brief Start the UART peripheral in listening mode.
  88:../../libDaisy//src/hid/midi.h ****      *  This will fill an internal data structure in the background */
  89:../../libDaisy//src/hid/midi.h ****     inline void StartRx(MidiRxParseCallback parse_callback, void* context)
  90:../../libDaisy//src/hid/midi.h ****     {
ARM GAS  C:\Users\halcyon\AppData\Local\Temp\ccgaMkHw.s 			page 7


  91:../../libDaisy//src/hid/midi.h ****         parse_context_  = context;
  92:../../libDaisy//src/hid/midi.h ****         parse_callback_ = parse_callback;
  93:../../libDaisy//src/hid/midi.h ****         dsy_dma_clear_cache_for_buffer((uint8_t*)this,
  94:../../libDaisy//src/hid/midi.h ****                                        sizeof(MidiUartTransport));
  95:../../libDaisy//src/hid/midi.h ****         uart_.DmaListenStart(
  96:../../libDaisy//src/hid/midi.h ****             rx_buffer, rx_buffer_size, MidiUartTransport::rxCallback, this);
  97:../../libDaisy//src/hid/midi.h ****     }
  98:../../libDaisy//src/hid/midi.h **** 
  99:../../libDaisy//src/hid/midi.h ****     /** @brief returns whether the UART peripheral is actively listening in the background or not *
 100:../../libDaisy//src/hid/midi.h ****     inline bool RxActive() { return uart_.IsListening(); }
 101:../../libDaisy//src/hid/midi.h **** 
 102:../../libDaisy//src/hid/midi.h ****     /** @brief This is a no-op for UART transport - Rx is via DMA callback with circular buffer */
 103:../../libDaisy//src/hid/midi.h ****     inline void FlushRx() {}
 104:../../libDaisy//src/hid/midi.h **** 
 105:../../libDaisy//src/hid/midi.h ****     /** @brief sends the buffer of bytes out of the UART peripheral */
 106:../../libDaisy//src/hid/midi.h ****     inline void Tx(uint8_t* buff, size_t size) { uart_.PollTx(buff, size); }
 107:../../libDaisy//src/hid/midi.h **** 
 108:../../libDaisy//src/hid/midi.h ****   private:
 109:../../libDaisy//src/hid/midi.h ****     UartHandler         uart_;
 110:../../libDaisy//src/hid/midi.h ****     uint8_t*            rx_buffer;
 111:../../libDaisy//src/hid/midi.h ****     size_t              rx_buffer_size;
 112:../../libDaisy//src/hid/midi.h ****     void*               parse_context_;
 113:../../libDaisy//src/hid/midi.h ****     MidiRxParseCallback parse_callback_;
 114:../../libDaisy//src/hid/midi.h **** 
 115:../../libDaisy//src/hid/midi.h ****     /** Static callback for Uart MIDI that occurs when
 116:../../libDaisy//src/hid/midi.h ****          *  new data is available from the peripheral.
 117:../../libDaisy//src/hid/midi.h ****          *  The new data is transferred from the peripheral to the
 118:../../libDaisy//src/hid/midi.h ****          *  MIDI instance's byte FIFO that feeds the MIDI parser.
 119:../../libDaisy//src/hid/midi.h ****          *
 120:../../libDaisy//src/hid/midi.h ****          *  TODO: Handle UartHandler errors better/at all.
 121:../../libDaisy//src/hid/midi.h ****          *  (If there is a UART error, there's not really any recovery
 122:../../libDaisy//src/hid/midi.h ****          *  option at the moment)
 123:../../libDaisy//src/hid/midi.h ****          */
 124:../../libDaisy//src/hid/midi.h ****     static void rxCallback(uint8_t*            data,
 125:../../libDaisy//src/hid/midi.h ****                            size_t              size,
 126:../../libDaisy//src/hid/midi.h ****                            void*               context,
 127:../../libDaisy//src/hid/midi.h ****                            UartHandler::Result res)
 128:../../libDaisy//src/hid/midi.h ****     {
 129:../../libDaisy//src/hid/midi.h ****         /** Read context as transport type */
 130:../../libDaisy//src/hid/midi.h ****         MidiUartTransport* transport
 131:../../libDaisy//src/hid/midi.h ****             = reinterpret_cast<MidiUartTransport*>(context);
 132:../../libDaisy//src/hid/midi.h ****         if(res == UartHandler::Result::OK)
 133:../../libDaisy//src/hid/midi.h ****         {
 134:../../libDaisy//src/hid/midi.h ****             if(transport->parse_callback_)
 135:../../libDaisy//src/hid/midi.h ****             {
 136:../../libDaisy//src/hid/midi.h ****                 transport->parse_callback_(
 137:../../libDaisy//src/hid/midi.h ****                     data, size, transport->parse_context_);
 138:../../libDaisy//src/hid/midi.h ****             }
 139:../../libDaisy//src/hid/midi.h ****         }
 140:../../libDaisy//src/hid/midi.h ****     }
 141:../../libDaisy//src/hid/midi.h **** };
 142:../../libDaisy//src/hid/midi.h **** 
 143:../../libDaisy//src/hid/midi.h **** /**
 144:../../libDaisy//src/hid/midi.h ****     @brief Simple MIDI Handler \n
 145:../../libDaisy//src/hid/midi.h ****     Parses bytes from an input into valid MidiEvents. \n
 146:../../libDaisy//src/hid/midi.h ****     The MidiEvents fill a FIFO queue that the user can pop messages from.
 147:../../libDaisy//src/hid/midi.h ****     @author shensley
ARM GAS  C:\Users\halcyon\AppData\Local\Temp\ccgaMkHw.s 			page 8


 148:../../libDaisy//src/hid/midi.h ****     @date March 2020
 149:../../libDaisy//src/hid/midi.h ****     @ingroup midi
 150:../../libDaisy//src/hid/midi.h **** */
 151:../../libDaisy//src/hid/midi.h **** template <typename Transport>
 152:../../libDaisy//src/hid/midi.h **** class MidiHandler
 153:../../libDaisy//src/hid/midi.h **** {
 154:../../libDaisy//src/hid/midi.h ****   public:
 155:../../libDaisy//src/hid/midi.h ****     MidiHandler() {}
 156:../../libDaisy//src/hid/midi.h ****     ~MidiHandler() {}
  94              		.loc 5 156 5 view .LVU7
  95              	.LBB611:
  96              	.LBI611:
  97              		.file 6 "../../libDaisy//src/util/FIFO.h"
   1:../../libDaisy//src/util/FIFO.h **** #pragma once
   2:../../libDaisy//src/util/FIFO.h **** 
   3:../../libDaisy//src/util/FIFO.h **** #include <stdint.h>
   4:../../libDaisy//src/util/FIFO.h **** #include <stddef.h>
   5:../../libDaisy//src/util/FIFO.h **** #include <initializer_list>
   6:../../libDaisy//src/util/FIFO.h **** 
   7:../../libDaisy//src/util/FIFO.h **** namespace daisy
   8:../../libDaisy//src/util/FIFO.h **** {
   9:../../libDaisy//src/util/FIFO.h **** /** Capacity-independent base class for FIFO. Use FIFO instead. */
  10:../../libDaisy//src/util/FIFO.h **** template <typename T>
  11:../../libDaisy//src/util/FIFO.h **** class FIFOBase
  12:../../libDaisy//src/util/FIFO.h **** {
  13:../../libDaisy//src/util/FIFO.h ****   protected:
  14:../../libDaisy//src/util/FIFO.h ****     FIFOBase(T* buffer, size_t bufferSize)
  15:../../libDaisy//src/util/FIFO.h ****     : buffer_(buffer), bufferSize_(bufferSize), bufferIn_(0), bufferOut_(0)
  16:../../libDaisy//src/util/FIFO.h ****     {
  17:../../libDaisy//src/util/FIFO.h ****     }
  18:../../libDaisy//src/util/FIFO.h **** 
  19:../../libDaisy//src/util/FIFO.h ****     FIFOBase(T* buffer, size_t bufferSize, std::initializer_list<T> valuesToAdd)
  20:../../libDaisy//src/util/FIFO.h ****     : buffer_(buffer), bufferSize_(bufferSize), bufferIn_(0), bufferOut_(0)
  21:../../libDaisy//src/util/FIFO.h ****     {
  22:../../libDaisy//src/util/FIFO.h ****         PushBack(valuesToAdd);
  23:../../libDaisy//src/util/FIFO.h ****     }
  24:../../libDaisy//src/util/FIFO.h **** 
  25:../../libDaisy//src/util/FIFO.h ****   public:
  26:../../libDaisy//src/util/FIFO.h ****     /** Copies all elements from another FIFO */
  27:../../libDaisy//src/util/FIFO.h ****     FIFOBase<T>& operator=(const FIFOBase<T>& other)
  28:../../libDaisy//src/util/FIFO.h ****     {
  29:../../libDaisy//src/util/FIFO.h ****         bufferIn_ = bufferOut_ = 0;
  30:../../libDaisy//src/util/FIFO.h ****         if(!other.IsEmpty())
  31:../../libDaisy//src/util/FIFO.h ****         {
  32:../../libDaisy//src/util/FIFO.h ****             int readPtr = other.bufferOut_;
  33:../../libDaisy//src/util/FIFO.h ****             while((readPtr != other.bufferIn_) && (bufferIn_ < bufferSize_))
  34:../../libDaisy//src/util/FIFO.h ****             {
  35:../../libDaisy//src/util/FIFO.h ****                 buffer_[bufferIn_++] = other.buffer_[readPtr++];
  36:../../libDaisy//src/util/FIFO.h ****                 if(readPtr >= other.bufferSize_)
  37:../../libDaisy//src/util/FIFO.h ****                     readPtr -= other.bufferSize_;
  38:../../libDaisy//src/util/FIFO.h ****             }
  39:../../libDaisy//src/util/FIFO.h ****         }
  40:../../libDaisy//src/util/FIFO.h ****         return *this;
  41:../../libDaisy//src/util/FIFO.h ****     }
  42:../../libDaisy//src/util/FIFO.h ****     ~FIFOBase() {}
  43:../../libDaisy//src/util/FIFO.h **** 
  44:../../libDaisy//src/util/FIFO.h ****     /** Removes all elements from the FIFO */
ARM GAS  C:\Users\halcyon\AppData\Local\Temp\ccgaMkHw.s 			page 9


  45:../../libDaisy//src/util/FIFO.h ****     void Clear() { bufferIn_ = bufferOut_ = 0; }
  46:../../libDaisy//src/util/FIFO.h **** 
  47:../../libDaisy//src/util/FIFO.h ****     /** Adds an element to the back of the buffer, returning true on
  48:../../libDaisy//src/util/FIFO.h ****         success */
  49:../../libDaisy//src/util/FIFO.h ****     bool PushBack(const T& elementToAdd)
  50:../../libDaisy//src/util/FIFO.h ****     {
  51:../../libDaisy//src/util/FIFO.h ****         if(!IsFull())
  52:../../libDaisy//src/util/FIFO.h ****         {
  53:../../libDaisy//src/util/FIFO.h ****             buffer_[bufferIn_++] = elementToAdd;
  54:../../libDaisy//src/util/FIFO.h ****             if(bufferIn_ >= bufferSize_)
  55:../../libDaisy//src/util/FIFO.h ****                 bufferIn_ -= bufferSize_;
  56:../../libDaisy//src/util/FIFO.h ****             return true;
  57:../../libDaisy//src/util/FIFO.h ****         }
  58:../../libDaisy//src/util/FIFO.h ****         return false;
  59:../../libDaisy//src/util/FIFO.h ****     }
  60:../../libDaisy//src/util/FIFO.h **** 
  61:../../libDaisy//src/util/FIFO.h ****     /** Adds multiple elements and returns the number of elements that were added */
  62:../../libDaisy//src/util/FIFO.h ****     int PushBack(std::initializer_list<T> valuesToAdd)
  63:../../libDaisy//src/util/FIFO.h ****     {
  64:../../libDaisy//src/util/FIFO.h ****         int numAdded = 0;
  65:../../libDaisy//src/util/FIFO.h ****         for(const auto& v : valuesToAdd)
  66:../../libDaisy//src/util/FIFO.h ****         {
  67:../../libDaisy//src/util/FIFO.h ****             if(IsFull())
  68:../../libDaisy//src/util/FIFO.h ****                 return numAdded;
  69:../../libDaisy//src/util/FIFO.h **** 
  70:../../libDaisy//src/util/FIFO.h ****             PushBack(v);
  71:../../libDaisy//src/util/FIFO.h ****             numAdded++;
  72:../../libDaisy//src/util/FIFO.h ****         }
  73:../../libDaisy//src/util/FIFO.h ****         return numAdded;
  74:../../libDaisy//src/util/FIFO.h ****     }
  75:../../libDaisy//src/util/FIFO.h **** 
  76:../../libDaisy//src/util/FIFO.h ****     /** returns a reference to the last element */
  77:../../libDaisy//src/util/FIFO.h ****     T& Back()
  78:../../libDaisy//src/util/FIFO.h ****     {
  79:../../libDaisy//src/util/FIFO.h ****         if(IsEmpty())
  80:../../libDaisy//src/util/FIFO.h ****             // invalid, but better not pass a temporary T() object as a reference...
  81:../../libDaisy//src/util/FIFO.h ****             return buffer_[0];
  82:../../libDaisy//src/util/FIFO.h ****         int idx = bufferIn_ - 1;
  83:../../libDaisy//src/util/FIFO.h ****         if(idx < 0)
  84:../../libDaisy//src/util/FIFO.h ****             idx += bufferSize_;
  85:../../libDaisy//src/util/FIFO.h ****         return buffer_[idx];
  86:../../libDaisy//src/util/FIFO.h ****     }
  87:../../libDaisy//src/util/FIFO.h **** 
  88:../../libDaisy//src/util/FIFO.h ****     /** returns a reference to the last element */
  89:../../libDaisy//src/util/FIFO.h ****     const T& Back() const
  90:../../libDaisy//src/util/FIFO.h ****     {
  91:../../libDaisy//src/util/FIFO.h ****         if(IsEmpty())
  92:../../libDaisy//src/util/FIFO.h ****             // invalid, but better not pass a temporary T() object as a reference...
  93:../../libDaisy//src/util/FIFO.h ****             return buffer_[0];
  94:../../libDaisy//src/util/FIFO.h ****         int idx = bufferIn_ - 1;
  95:../../libDaisy//src/util/FIFO.h ****         if(idx < 0)
  96:../../libDaisy//src/util/FIFO.h ****             idx += bufferSize_;
  97:../../libDaisy//src/util/FIFO.h ****         return buffer_[idx];
  98:../../libDaisy//src/util/FIFO.h ****     }
  99:../../libDaisy//src/util/FIFO.h **** 
 100:../../libDaisy//src/util/FIFO.h ****     /** removes and returns an element from the front of the buffer */
 101:../../libDaisy//src/util/FIFO.h ****     T PopFront()
ARM GAS  C:\Users\halcyon\AppData\Local\Temp\ccgaMkHw.s 			page 10


 102:../../libDaisy//src/util/FIFO.h ****     {
 103:../../libDaisy//src/util/FIFO.h ****         if(IsEmpty())
 104:../../libDaisy//src/util/FIFO.h ****             return T();
 105:../../libDaisy//src/util/FIFO.h ****         else
 106:../../libDaisy//src/util/FIFO.h ****         {
 107:../../libDaisy//src/util/FIFO.h ****             const auto result = buffer_[bufferOut_];
 108:../../libDaisy//src/util/FIFO.h ****             bufferOut_++;
 109:../../libDaisy//src/util/FIFO.h ****             if(bufferOut_ >= bufferSize_)
 110:../../libDaisy//src/util/FIFO.h ****                 bufferOut_ -= bufferSize_;
 111:../../libDaisy//src/util/FIFO.h ****             return result;
 112:../../libDaisy//src/util/FIFO.h ****         }
 113:../../libDaisy//src/util/FIFO.h ****     }
 114:../../libDaisy//src/util/FIFO.h **** 
 115:../../libDaisy//src/util/FIFO.h ****     /** returns a copy of the first element */
 116:../../libDaisy//src/util/FIFO.h ****     T& Front()
 117:../../libDaisy//src/util/FIFO.h ****     {
 118:../../libDaisy//src/util/FIFO.h ****         if(IsEmpty())
 119:../../libDaisy//src/util/FIFO.h ****             // invalid, but better not pass a temporary T() object as a reference...
 120:../../libDaisy//src/util/FIFO.h ****             return buffer_[0];
 121:../../libDaisy//src/util/FIFO.h ****         return buffer_[bufferOut_];
 122:../../libDaisy//src/util/FIFO.h ****     }
 123:../../libDaisy//src/util/FIFO.h **** 
 124:../../libDaisy//src/util/FIFO.h ****     /** returns a reference to the first element */
 125:../../libDaisy//src/util/FIFO.h ****     const T& Front() const
 126:../../libDaisy//src/util/FIFO.h ****     {
 127:../../libDaisy//src/util/FIFO.h ****         if(IsEmpty())
 128:../../libDaisy//src/util/FIFO.h ****             // invalid, but better not pass a temporary T() object as a reference...
 129:../../libDaisy//src/util/FIFO.h ****             return buffer_[0];
 130:../../libDaisy//src/util/FIFO.h ****         return buffer_[bufferOut_];
 131:../../libDaisy//src/util/FIFO.h ****     }
 132:../../libDaisy//src/util/FIFO.h **** 
 133:../../libDaisy//src/util/FIFO.h ****     /** Returns true if the buffer contains an element equal to the provided value */
 134:../../libDaisy//src/util/FIFO.h ****     bool Contains(const T& element)
 135:../../libDaisy//src/util/FIFO.h ****     {
 136:../../libDaisy//src/util/FIFO.h ****         auto idx = bufferOut_;
 137:../../libDaisy//src/util/FIFO.h ****         while(idx != bufferIn_)
 138:../../libDaisy//src/util/FIFO.h ****         {
 139:../../libDaisy//src/util/FIFO.h ****             if(buffer_[idx] == element)
 140:../../libDaisy//src/util/FIFO.h ****                 return true;
 141:../../libDaisy//src/util/FIFO.h ****             idx++;
 142:../../libDaisy//src/util/FIFO.h ****             if(idx >= bufferSize_)
 143:../../libDaisy//src/util/FIFO.h ****                 idx -= bufferSize_;
 144:../../libDaisy//src/util/FIFO.h ****         }
 145:../../libDaisy//src/util/FIFO.h ****         return false;
 146:../../libDaisy//src/util/FIFO.h ****     }
 147:../../libDaisy//src/util/FIFO.h **** 
 148:../../libDaisy//src/util/FIFO.h ****     /** Returns the number of elements in the buffer that are equal to the provided value */
 149:../../libDaisy//src/util/FIFO.h ****     size_t CountEqualTo(const T& element)
 150:../../libDaisy//src/util/FIFO.h ****     {
 151:../../libDaisy//src/util/FIFO.h ****         size_t result = 0;
 152:../../libDaisy//src/util/FIFO.h ****         size_t idx    = bufferOut_;
 153:../../libDaisy//src/util/FIFO.h ****         while(idx != bufferIn_)
 154:../../libDaisy//src/util/FIFO.h ****         {
 155:../../libDaisy//src/util/FIFO.h ****             if(buffer_[idx] == element)
 156:../../libDaisy//src/util/FIFO.h ****                 result++;
 157:../../libDaisy//src/util/FIFO.h ****             idx++;
 158:../../libDaisy//src/util/FIFO.h ****             if(idx >= bufferSize_)
ARM GAS  C:\Users\halcyon\AppData\Local\Temp\ccgaMkHw.s 			page 11


 159:../../libDaisy//src/util/FIFO.h ****                 idx -= bufferSize_;
 160:../../libDaisy//src/util/FIFO.h ****         }
 161:../../libDaisy//src/util/FIFO.h ****         return result;
 162:../../libDaisy//src/util/FIFO.h ****     }
 163:../../libDaisy//src/util/FIFO.h **** 
 164:../../libDaisy//src/util/FIFO.h ****     /** returns true, if the buffer is empty */
 165:../../libDaisy//src/util/FIFO.h ****     bool IsEmpty() const { return bufferIn_ == bufferOut_; }
 166:../../libDaisy//src/util/FIFO.h **** 
 167:../../libDaisy//src/util/FIFO.h ****     /** returns true, if the buffer is Full */
 168:../../libDaisy//src/util/FIFO.h ****     bool IsFull() const { return GetNumElements() == bufferSize_ - 1; }
 169:../../libDaisy//src/util/FIFO.h **** 
 170:../../libDaisy//src/util/FIFO.h ****     /** returns the number of elements in the buffer */
 171:../../libDaisy//src/util/FIFO.h ****     size_t GetNumElements() const
 172:../../libDaisy//src/util/FIFO.h ****     {
 173:../../libDaisy//src/util/FIFO.h ****         int32_t numElements = bufferIn_ - bufferOut_;
 174:../../libDaisy//src/util/FIFO.h ****         if(numElements < 0)
 175:../../libDaisy//src/util/FIFO.h ****             numElements += bufferSize_;
 176:../../libDaisy//src/util/FIFO.h ****         return size_t(numElements);
 177:../../libDaisy//src/util/FIFO.h ****     }
 178:../../libDaisy//src/util/FIFO.h **** 
 179:../../libDaisy//src/util/FIFO.h ****     /** inserts an element "idx" positions behind the first element and returns true if successful 
 180:../../libDaisy//src/util/FIFO.h ****     bool Insert(size_t idx, const T& element)
 181:../../libDaisy//src/util/FIFO.h ****     {
 182:../../libDaisy//src/util/FIFO.h ****         if(idx > GetNumElements())
 183:../../libDaisy//src/util/FIFO.h ****             return false;
 184:../../libDaisy//src/util/FIFO.h ****         if(IsFull())
 185:../../libDaisy//src/util/FIFO.h ****             return false;
 186:../../libDaisy//src/util/FIFO.h ****         if(idx == GetNumElements())
 187:../../libDaisy//src/util/FIFO.h ****         {
 188:../../libDaisy//src/util/FIFO.h ****             PushBack(element);
 189:../../libDaisy//src/util/FIFO.h ****             return true;
 190:../../libDaisy//src/util/FIFO.h ****         }
 191:../../libDaisy//src/util/FIFO.h ****         // copy last element
 192:../../libDaisy//src/util/FIFO.h ****         PushBack(Back());
 193:../../libDaisy//src/util/FIFO.h ****         // move remaining elements: n => n+1
 194:../../libDaisy//src/util/FIFO.h ****         for(int i = GetNumElements() - 2; i > int(idx); i--)
 195:../../libDaisy//src/util/FIFO.h ****             (*this)[i] = (*this)[i - 1];
 196:../../libDaisy//src/util/FIFO.h ****         // insert element
 197:../../libDaisy//src/util/FIFO.h ****         (*this)[idx] = element;
 198:../../libDaisy//src/util/FIFO.h ****         return true;
 199:../../libDaisy//src/util/FIFO.h ****     }
 200:../../libDaisy//src/util/FIFO.h **** 
 201:../../libDaisy//src/util/FIFO.h ****     /** removes the element "idx" positions behind the first element 
 202:../../libDaisy//src/util/FIFO.h ****      *  and returns true if successful */
 203:../../libDaisy//src/util/FIFO.h ****     bool Remove(size_t idx)
 204:../../libDaisy//src/util/FIFO.h ****     {
 205:../../libDaisy//src/util/FIFO.h ****         if(idx >= GetNumElements())
 206:../../libDaisy//src/util/FIFO.h ****             return false;
 207:../../libDaisy//src/util/FIFO.h **** 
 208:../../libDaisy//src/util/FIFO.h ****         size_t index = bufferOut_ + idx;
 209:../../libDaisy//src/util/FIFO.h ****         if(index >= bufferSize_)
 210:../../libDaisy//src/util/FIFO.h ****             index -= bufferSize_;
 211:../../libDaisy//src/util/FIFO.h ****         size_t nextIndex = index + 1;
 212:../../libDaisy//src/util/FIFO.h ****         if(nextIndex >= bufferSize_)
 213:../../libDaisy//src/util/FIFO.h ****             nextIndex -= bufferSize_;
 214:../../libDaisy//src/util/FIFO.h **** 
 215:../../libDaisy//src/util/FIFO.h ****         while(nextIndex != bufferIn_)
ARM GAS  C:\Users\halcyon\AppData\Local\Temp\ccgaMkHw.s 			page 12


 216:../../libDaisy//src/util/FIFO.h ****         {
 217:../../libDaisy//src/util/FIFO.h ****             buffer_[index] = buffer_[nextIndex];
 218:../../libDaisy//src/util/FIFO.h ****             index++;
 219:../../libDaisy//src/util/FIFO.h ****             nextIndex++;
 220:../../libDaisy//src/util/FIFO.h ****             if(index >= bufferSize_)
 221:../../libDaisy//src/util/FIFO.h ****                 index -= bufferSize_;
 222:../../libDaisy//src/util/FIFO.h ****             if(nextIndex >= bufferSize_)
 223:../../libDaisy//src/util/FIFO.h ****                 nextIndex -= bufferSize_;
 224:../../libDaisy//src/util/FIFO.h ****         }
 225:../../libDaisy//src/util/FIFO.h **** 
 226:../../libDaisy//src/util/FIFO.h ****         int32_t nextBufferIn = int32_t(bufferIn_) - 1;
 227:../../libDaisy//src/util/FIFO.h ****         if(nextBufferIn < 0)
 228:../../libDaisy//src/util/FIFO.h ****             nextBufferIn += bufferSize_;
 229:../../libDaisy//src/util/FIFO.h ****         bufferIn_ = size_t(nextBufferIn);
 230:../../libDaisy//src/util/FIFO.h **** 
 231:../../libDaisy//src/util/FIFO.h ****         return true;
 232:../../libDaisy//src/util/FIFO.h ****     }
 233:../../libDaisy//src/util/FIFO.h **** 
 234:../../libDaisy//src/util/FIFO.h ****     /** removes all elements from the buffer for which
 235:../../libDaisy//src/util/FIFO.h ****         (buffer(index) == element) returns true and returns the number of
 236:../../libDaisy//src/util/FIFO.h ****         elements that were removed. */
 237:../../libDaisy//src/util/FIFO.h ****     size_t RemoveAllEqualTo(const T& element)
 238:../../libDaisy//src/util/FIFO.h ****     {
 239:../../libDaisy//src/util/FIFO.h ****         size_t numRemoved = 0;
 240:../../libDaisy//src/util/FIFO.h ****         int    idx        = GetNumElements() - 1;
 241:../../libDaisy//src/util/FIFO.h ****         while(idx >= 0)
 242:../../libDaisy//src/util/FIFO.h ****         {
 243:../../libDaisy//src/util/FIFO.h ****             if((*this)[idx] == element)
 244:../../libDaisy//src/util/FIFO.h ****             {
 245:../../libDaisy//src/util/FIFO.h ****                 numRemoved++;
 246:../../libDaisy//src/util/FIFO.h ****                 Remove(idx);
 247:../../libDaisy//src/util/FIFO.h ****                 // was that the last element?
 248:../../libDaisy//src/util/FIFO.h ****                 if(idx == int(GetNumElements()) - 1)
 249:../../libDaisy//src/util/FIFO.h ****                     idx--;
 250:../../libDaisy//src/util/FIFO.h ****             }
 251:../../libDaisy//src/util/FIFO.h ****             else
 252:../../libDaisy//src/util/FIFO.h ****                 idx--;
 253:../../libDaisy//src/util/FIFO.h ****         }
 254:../../libDaisy//src/util/FIFO.h ****         return numRemoved;
 255:../../libDaisy//src/util/FIFO.h ****     }
 256:../../libDaisy//src/util/FIFO.h **** 
 257:../../libDaisy//src/util/FIFO.h ****     /** returns the element "idx" positions behind the first element */
 258:../../libDaisy//src/util/FIFO.h ****     T& operator[](size_t idx)
 259:../../libDaisy//src/util/FIFO.h ****     {
 260:../../libDaisy//src/util/FIFO.h ****         if(idx >= GetNumElements())
 261:../../libDaisy//src/util/FIFO.h ****             // invalid, but better not pass a temporary T() object as a reference...
 262:../../libDaisy//src/util/FIFO.h ****             return buffer_[0];
 263:../../libDaisy//src/util/FIFO.h **** 
 264:../../libDaisy//src/util/FIFO.h ****         size_t index = bufferOut_ + idx;
 265:../../libDaisy//src/util/FIFO.h ****         if(index >= bufferSize_)
 266:../../libDaisy//src/util/FIFO.h ****             index -= bufferSize_;
 267:../../libDaisy//src/util/FIFO.h ****         return buffer_[index];
 268:../../libDaisy//src/util/FIFO.h ****     }
 269:../../libDaisy//src/util/FIFO.h **** 
 270:../../libDaisy//src/util/FIFO.h ****     /** returns the element "idx" positions behind the first element */
 271:../../libDaisy//src/util/FIFO.h ****     const T& operator[](size_t idx) const
 272:../../libDaisy//src/util/FIFO.h ****     {
ARM GAS  C:\Users\halcyon\AppData\Local\Temp\ccgaMkHw.s 			page 13


 273:../../libDaisy//src/util/FIFO.h ****         if(idx >= GetNumElements())
 274:../../libDaisy//src/util/FIFO.h ****             // invalid, but better not pass a temporary T() object as a reference...
 275:../../libDaisy//src/util/FIFO.h ****             return buffer_[0];
 276:../../libDaisy//src/util/FIFO.h **** 
 277:../../libDaisy//src/util/FIFO.h ****         size_t index = bufferOut_ + idx;
 278:../../libDaisy//src/util/FIFO.h ****         if(index >= bufferSize_)
 279:../../libDaisy//src/util/FIFO.h ****             index -= bufferSize_;
 280:../../libDaisy//src/util/FIFO.h ****         return buffer_[index];
 281:../../libDaisy//src/util/FIFO.h ****     }
 282:../../libDaisy//src/util/FIFO.h **** 
 283:../../libDaisy//src/util/FIFO.h ****     /** returns the total capacity */
 284:../../libDaisy//src/util/FIFO.h ****     size_t GetCapacity() const { return bufferSize_ - 1; }
 285:../../libDaisy//src/util/FIFO.h **** 
 286:../../libDaisy//src/util/FIFO.h ****   private:
 287:../../libDaisy//src/util/FIFO.h ****     FIFOBase(const FIFOBase<T>&) {} // non copyable
 288:../../libDaisy//src/util/FIFO.h **** 
 289:../../libDaisy//src/util/FIFO.h ****   private:
 290:../../libDaisy//src/util/FIFO.h ****     T*           buffer_;
 291:../../libDaisy//src/util/FIFO.h ****     const size_t bufferSize_;
 292:../../libDaisy//src/util/FIFO.h ****     size_t       bufferIn_;
 293:../../libDaisy//src/util/FIFO.h ****     size_t       bufferOut_;
 294:../../libDaisy//src/util/FIFO.h **** };
 295:../../libDaisy//src/util/FIFO.h **** 
 296:../../libDaisy//src/util/FIFO.h **** /** A simple FIFO ring buffer with a fixed size. */
 297:../../libDaisy//src/util/FIFO.h **** template <typename T, size_t capacity>
 298:../../libDaisy//src/util/FIFO.h **** class FIFO : public FIFOBase<T>
  98              		.loc 6 298 7 view .LVU8
  99              	.LBB612:
 100              	.LBI612:
  42:../../libDaisy//src/util/FIFO.h **** 
 101              		.loc 6 42 5 view .LVU9
  42:../../libDaisy//src/util/FIFO.h **** 
 102              		.loc 6 42 5 is_stmt 0 view .LVU10
 103              	.LBE612:
 104              	.LBE611:
 105              	.LBB613:
 106              	.LBI613:
 107              		.file 7 "../../libDaisy//src/hid/midi_parser.h"
   1:../../libDaisy//src/hid/midi_parser.h **** #pragma once
   2:../../libDaisy//src/hid/midi_parser.h **** #ifndef DSY_MIDI_PARSER_H
   3:../../libDaisy//src/hid/midi_parser.h **** #define DSY_MIDI_PARSER_H
   4:../../libDaisy//src/hid/midi_parser.h **** 
   5:../../libDaisy//src/hid/midi_parser.h **** #include <stdint.h>
   6:../../libDaisy//src/hid/midi_parser.h **** #include <stdlib.h>
   7:../../libDaisy//src/hid/midi_parser.h **** #include "hid/MidiEvent.h"
   8:../../libDaisy//src/hid/midi_parser.h **** 
   9:../../libDaisy//src/hid/midi_parser.h **** namespace daisy
  10:../../libDaisy//src/hid/midi_parser.h **** {
  11:../../libDaisy//src/hid/midi_parser.h **** /** @brief   Utility class for parsing raw byte streams into MIDI messages
  12:../../libDaisy//src/hid/midi_parser.h ****  *  @details Implemented as a state machine designed to parse one byte at a time
  13:../../libDaisy//src/hid/midi_parser.h ****  *  @ingroup midi
  14:../../libDaisy//src/hid/midi_parser.h ****  */
  15:../../libDaisy//src/hid/midi_parser.h **** class MidiParser
  16:../../libDaisy//src/hid/midi_parser.h **** {
  17:../../libDaisy//src/hid/midi_parser.h ****   public:
  18:../../libDaisy//src/hid/midi_parser.h ****     MidiParser(){};
  19:../../libDaisy//src/hid/midi_parser.h ****     ~MidiParser() {}
ARM GAS  C:\Users\halcyon\AppData\Local\Temp\ccgaMkHw.s 			page 14


 108              		.loc 7 19 5 is_stmt 1 view .LVU11
 109              		.loc 7 19 5 is_stmt 0 view .LVU12
 110              	.LBE613:
 111              	.LBB614:
 112              	.LBI614:
  32:../../libDaisy//src/hid/midi.h **** 
 113              		.loc 5 32 5 is_stmt 1 view .LVU13
  32:../../libDaisy//src/hid/midi.h **** 
 114              		.loc 5 32 5 is_stmt 0 view .LVU14
 115              	.LBE614:
 116              	.LBE610:
 117              	.LBB615:
 118              	.LBI615:
 119              		.file 8 "../../libDaisy//src/hid/rgb_led.h"
   1:../../libDaisy//src/hid/rgb_led.h **** #pragma once
   2:../../libDaisy//src/hid/rgb_led.h **** #ifndef DSY_RGB_LED_H
   3:../../libDaisy//src/hid/rgb_led.h **** #define DSY_RGB_LED_H
   4:../../libDaisy//src/hid/rgb_led.h **** #include "hid/led.h"
   5:../../libDaisy//src/hid/rgb_led.h **** #include "util/color.h"
   6:../../libDaisy//src/hid/rgb_led.h **** 
   7:../../libDaisy//src/hid/rgb_led.h **** namespace daisy
   8:../../libDaisy//src/hid/rgb_led.h **** {
   9:../../libDaisy//src/hid/rgb_led.h **** /** @addtogroup feedback
  10:../../libDaisy//src/hid/rgb_led.h ****     @{
  11:../../libDaisy//src/hid/rgb_led.h **** */
  12:../../libDaisy//src/hid/rgb_led.h **** 
  13:../../libDaisy//src/hid/rgb_led.h **** /** 3x LEDs configured as an RGB for ease of use. */
  14:../../libDaisy//src/hid/rgb_led.h **** class RgbLed
  15:../../libDaisy//src/hid/rgb_led.h **** {
  16:../../libDaisy//src/hid/rgb_led.h ****   public:
  17:../../libDaisy//src/hid/rgb_led.h ****     RgbLed() {}
  18:../../libDaisy//src/hid/rgb_led.h ****     ~RgbLed() {}
 120              		.loc 8 18 5 is_stmt 1 view .LVU15
 121              	.LBB616:
 122              	.LBI616:
 123              		.file 9 "../../libDaisy//src/hid/led.h"
   1:../../libDaisy//src/hid/led.h **** 
   2:../../libDaisy//src/hid/led.h **** #pragma once
   3:../../libDaisy//src/hid/led.h **** #ifndef DSY_LED_H
   4:../../libDaisy//src/hid/led.h **** #define DSY_LED_H
   5:../../libDaisy//src/hid/led.h **** #include "daisy_core.h"
   6:../../libDaisy//src/hid/led.h **** #include "per/gpio.h"
   7:../../libDaisy//src/hid/led.h **** 
   8:../../libDaisy//src/hid/led.h **** /* TODO - Get this set up to work with the dev_leddriver stuff as well
   9:../../libDaisy//src/hid/led.h **** - Setup Hardware PWM for pins that have it
  10:../../libDaisy//src/hid/led.h **** */
  11:../../libDaisy//src/hid/led.h **** 
  12:../../libDaisy//src/hid/led.h **** namespace daisy
  13:../../libDaisy//src/hid/led.h **** {
  14:../../libDaisy//src/hid/led.h **** /**
  15:../../libDaisy//src/hid/led.h ****     @brief LED Class providing simple Software PWM ability, etc \n 
  16:../../libDaisy//src/hid/led.h ****     Eventually this will work with hardware PWM, and external LED Driver devices as well.
  17:../../libDaisy//src/hid/led.h ****     @author shensley
  18:../../libDaisy//src/hid/led.h ****     @date March 2020
  19:../../libDaisy//src/hid/led.h ****     @ingroup feedback
  20:../../libDaisy//src/hid/led.h **** */
  21:../../libDaisy//src/hid/led.h **** class Led
ARM GAS  C:\Users\halcyon\AppData\Local\Temp\ccgaMkHw.s 			page 15


  22:../../libDaisy//src/hid/led.h **** {
  23:../../libDaisy//src/hid/led.h ****   public:
  24:../../libDaisy//src/hid/led.h ****     Led() {}
  25:../../libDaisy//src/hid/led.h ****     ~Led() {}
 124              		.loc 9 25 5 view .LVU16
 125              		.loc 9 25 5 is_stmt 0 view .LVU17
 126              	.LBE616:
 127              	.LBB617:
 128              	.LBI617:
 129              		.loc 9 25 5 is_stmt 1 view .LVU18
 130              		.loc 9 25 5 is_stmt 0 view .LVU19
 131              	.LBE617:
 132              	.LBB618:
 133              	.LBI618:
 134              		.loc 9 25 5 is_stmt 1 view .LVU20
 135              		.loc 9 25 5 is_stmt 0 view .LVU21
 136              	.LBE618:
 137              	.LBE615:
 138              	.LBB619:
 139              	.LBI619:
 140              		.loc 8 18 5 is_stmt 1 view .LVU22
 141              	.LBB620:
 142              	.LBI620:
 143              		.loc 9 25 5 view .LVU23
 144              		.loc 9 25 5 is_stmt 0 view .LVU24
 145              	.LBE620:
 146              	.LBB621:
 147              	.LBI621:
 148              		.loc 9 25 5 is_stmt 1 view .LVU25
 149              		.loc 9 25 5 is_stmt 0 view .LVU26
 150              	.LBE621:
 151              	.LBB622:
 152              	.LBI622:
 153              		.loc 9 25 5 is_stmt 1 view .LVU27
 154              		.loc 9 25 5 is_stmt 0 view .LVU28
 155              	.LBE622:
 156              	.LBE619:
 157              	.LBB623:
 158              	.LBI623:
 159              		.file 10 "../../libDaisy//src/hid/switch.h"
   1:../../libDaisy//src/hid/switch.h **** #pragma once
   2:../../libDaisy//src/hid/switch.h **** #ifndef DSY_SWITCH_H
   3:../../libDaisy//src/hid/switch.h **** #define DSY_SWITCH_H
   4:../../libDaisy//src/hid/switch.h **** #include "daisy_core.h"
   5:../../libDaisy//src/hid/switch.h **** #include "per/gpio.h"
   6:../../libDaisy//src/hid/switch.h **** #include "sys/system.h"
   7:../../libDaisy//src/hid/switch.h **** 
   8:../../libDaisy//src/hid/switch.h **** namespace daisy
   9:../../libDaisy//src/hid/switch.h **** {
  10:../../libDaisy//src/hid/switch.h **** /** 
  11:../../libDaisy//src/hid/switch.h ****     Generic Class for handling momentary/latching switches \n 
  12:../../libDaisy//src/hid/switch.h ****     Inspired/influenced by Mutable Instruments (pichenettes) Switch classes
  13:../../libDaisy//src/hid/switch.h ****     @author Stephen Hensley
  14:../../libDaisy//src/hid/switch.h ****     @date December 2019
  15:../../libDaisy//src/hid/switch.h ****     @ingroup controls
  16:../../libDaisy//src/hid/switch.h **** */
  17:../../libDaisy//src/hid/switch.h **** class Switch
ARM GAS  C:\Users\halcyon\AppData\Local\Temp\ccgaMkHw.s 			page 16


  18:../../libDaisy//src/hid/switch.h **** {
  19:../../libDaisy//src/hid/switch.h ****   public:
  20:../../libDaisy//src/hid/switch.h ****     /** Specifies the expected behavior of the switch */
  21:../../libDaisy//src/hid/switch.h ****     enum Type
  22:../../libDaisy//src/hid/switch.h ****     {
  23:../../libDaisy//src/hid/switch.h ****         TYPE_TOGGLE,    /**< & */
  24:../../libDaisy//src/hid/switch.h ****         TYPE_MOMENTARY, /**< & */
  25:../../libDaisy//src/hid/switch.h ****     };
  26:../../libDaisy//src/hid/switch.h ****     /** Specifies whether the pressed is HIGH or LOW. */
  27:../../libDaisy//src/hid/switch.h ****     enum Polarity
  28:../../libDaisy//src/hid/switch.h ****     {
  29:../../libDaisy//src/hid/switch.h ****         POLARITY_NORMAL,   /**< & */
  30:../../libDaisy//src/hid/switch.h ****         POLARITY_INVERTED, /**< & */
  31:../../libDaisy//src/hid/switch.h ****     };
  32:../../libDaisy//src/hid/switch.h **** 
  33:../../libDaisy//src/hid/switch.h ****     /** Specifies whether to use built-in Pull Up/Down resistors to hold button at a given state wh
  34:../../libDaisy//src/hid/switch.h ****     enum Pull
  35:../../libDaisy//src/hid/switch.h ****     {
  36:../../libDaisy//src/hid/switch.h ****         PULL_UP,   /**< & */
  37:../../libDaisy//src/hid/switch.h ****         PULL_DOWN, /**< & */
  38:../../libDaisy//src/hid/switch.h ****         PULL_NONE, /**< & */
  39:../../libDaisy//src/hid/switch.h ****     };
  40:../../libDaisy//src/hid/switch.h **** 
  41:../../libDaisy//src/hid/switch.h ****     Switch() {}
  42:../../libDaisy//src/hid/switch.h ****     ~Switch() {}
 160              		.loc 10 42 5 is_stmt 1 view .LVU29
 161              		.loc 10 42 5 is_stmt 0 view .LVU30
 162              	.LBE623:
 163              	.LBB624:
 164              	.LBI624:
 165              		.loc 10 42 5 is_stmt 1 view .LVU31
 166              		.loc 10 42 5 is_stmt 0 view .LVU32
 167              	.LBE624:
 168              	.LBB625:
 169              	.LBI625:
 170              		.loc 2 23 5 is_stmt 1 view .LVU33
 171              		.loc 2 23 5 is_stmt 0 view .LVU34
 172              	.LBE625:
 173              	.LBB626:
 174              	.LBI626:
 175              		.loc 2 23 5 is_stmt 1 view .LVU35
 176              		.loc 2 23 5 is_stmt 0 view .LVU36
 177              	.LBE626:
 178              	.LBB627:
 179              	.LBI627:
 180              		.file 11 "../../libDaisy//src/hid/encoder.h"
   1:../../libDaisy//src/hid/encoder.h **** #pragma once
   2:../../libDaisy//src/hid/encoder.h **** #ifndef DSY_ENCODER_H
   3:../../libDaisy//src/hid/encoder.h **** #define DSY_ENCODER_H
   4:../../libDaisy//src/hid/encoder.h **** #include "daisy_core.h"
   5:../../libDaisy//src/hid/encoder.h **** #include "per/gpio.h"
   6:../../libDaisy//src/hid/encoder.h **** #include "hid/switch.h"
   7:../../libDaisy//src/hid/encoder.h **** 
   8:../../libDaisy//src/hid/encoder.h **** namespace daisy
   9:../../libDaisy//src/hid/encoder.h **** {
  10:../../libDaisy//src/hid/encoder.h **** /** 
  11:../../libDaisy//src/hid/encoder.h ****     @brief Generic Class for handling Quadrature Encoders \n 
ARM GAS  C:\Users\halcyon\AppData\Local\Temp\ccgaMkHw.s 			page 17


  12:../../libDaisy//src/hid/encoder.h ****     Inspired/influenced by Mutable Instruments (pichenettes) Encoder classes
  13:../../libDaisy//src/hid/encoder.h ****     @author Stephen Hensley
  14:../../libDaisy//src/hid/encoder.h ****     @date December 2019
  15:../../libDaisy//src/hid/encoder.h ****     @ingroup controls
  16:../../libDaisy//src/hid/encoder.h **** */
  17:../../libDaisy//src/hid/encoder.h **** class Encoder
  18:../../libDaisy//src/hid/encoder.h **** {
  19:../../libDaisy//src/hid/encoder.h ****   public:
  20:../../libDaisy//src/hid/encoder.h ****     Encoder() {}
  21:../../libDaisy//src/hid/encoder.h ****     ~Encoder() {}
 181              		.loc 11 21 5 is_stmt 1 view .LVU37
 182              	.LBB628:
 183              	.LBI628:
 184              		.loc 10 42 5 view .LVU38
 185              		.loc 10 42 5 is_stmt 0 view .LVU39
 186              	.LBE628:
 187              	.LBE627:
 188              	.LBB629:
 189              	.LBI629:
 190              		.file 12 "../../libDaisy//src/daisy_seed.h"
   1:../../libDaisy//src/daisy_seed.h **** #pragma once
   2:../../libDaisy//src/daisy_seed.h **** #ifndef DSY_SEED_H
   3:../../libDaisy//src/daisy_seed.h **** #define DSY_SEED_H
   4:../../libDaisy//src/daisy_seed.h **** 
   5:../../libDaisy//src/daisy_seed.h **** #include "daisy.h"
   6:../../libDaisy//src/daisy_seed.h **** 
   7:../../libDaisy//src/daisy_seed.h **** //Uncomment this out if you're still using the rev2 hardware
   8:../../libDaisy//src/daisy_seed.h **** //#define SEED_REV2
   9:../../libDaisy//src/daisy_seed.h **** 
  10:../../libDaisy//src/daisy_seed.h **** namespace daisy
  11:../../libDaisy//src/daisy_seed.h **** {
  12:../../libDaisy//src/daisy_seed.h **** /**
  13:../../libDaisy//src/daisy_seed.h ****    @brief This is the higher-level interface for the Daisy board. \n 
  14:../../libDaisy//src/daisy_seed.h ****     All basic peripheral configuration/initialization is setup here. \n
  15:../../libDaisy//src/daisy_seed.h **** 
  16:../../libDaisy//src/daisy_seed.h ****    @ingroup boards
  17:../../libDaisy//src/daisy_seed.h **** */
  18:../../libDaisy//src/daisy_seed.h **** class DaisySeed
  19:../../libDaisy//src/daisy_seed.h **** {
  20:../../libDaisy//src/daisy_seed.h ****   public:
  21:../../libDaisy//src/daisy_seed.h ****     DaisySeed() {}
  22:../../libDaisy//src/daisy_seed.h ****     ~DaisySeed() {}
 191              		.loc 12 22 5 is_stmt 1 view .LVU40
 192              	.LBB630:
 193              	.LBI630:
 194              		.file 13 "../../libDaisy//src/sys/system.h"
   1:../../libDaisy//src/sys/system.h **** #ifndef DSY_SYSTEM_H
   2:../../libDaisy//src/sys/system.h **** #define DSY_SYSTEM_H
   3:../../libDaisy//src/sys/system.h **** 
   4:../../libDaisy//src/sys/system.h **** #ifndef UNIT_TEST // for unit tests, a dummy implementation is provided below
   5:../../libDaisy//src/sys/system.h **** 
   6:../../libDaisy//src/sys/system.h **** #include <cstdint>
   7:../../libDaisy//src/sys/system.h **** #include "per/tim.h"
   8:../../libDaisy//src/sys/system.h **** 
   9:../../libDaisy//src/sys/system.h **** namespace daisy
  10:../../libDaisy//src/sys/system.h **** {
  11:../../libDaisy//src/sys/system.h **** /** A handle for interacting with the Core System.
ARM GAS  C:\Users\halcyon\AppData\Local\Temp\ccgaMkHw.s 			page 18


  12:../../libDaisy//src/sys/system.h ****  ** This includes the Clock tree, MPU, global DMA initialization,
  13:../../libDaisy//src/sys/system.h ****  ** cache handling, and any other necessary global initiailzation
  14:../../libDaisy//src/sys/system.h ****  **
  15:../../libDaisy//src/sys/system.h ****  ** @author shensley
  16:../../libDaisy//src/sys/system.h ****  ** @ingroup system
  17:../../libDaisy//src/sys/system.h ****  */
  18:../../libDaisy//src/sys/system.h **** class System
  19:../../libDaisy//src/sys/system.h **** {
  20:../../libDaisy//src/sys/system.h ****   public:
  21:../../libDaisy//src/sys/system.h ****     /** Contains settings for initializing the System */
  22:../../libDaisy//src/sys/system.h ****     struct Config
  23:../../libDaisy//src/sys/system.h ****     {
  24:../../libDaisy//src/sys/system.h ****         /** Specifies the system clock frequency that feeds APB/AHB clocks, etc. */
  25:../../libDaisy//src/sys/system.h ****         enum class SysClkFreq
  26:../../libDaisy//src/sys/system.h ****         {
  27:../../libDaisy//src/sys/system.h ****             FREQ_400MHZ,
  28:../../libDaisy//src/sys/system.h ****             FREQ_480MHZ,
  29:../../libDaisy//src/sys/system.h ****         };
  30:../../libDaisy//src/sys/system.h **** 
  31:../../libDaisy//src/sys/system.h ****         /** Method to call on the struct to set to defaults
  32:../../libDaisy//src/sys/system.h ****          ** CPU Freq set to 400MHz
  33:../../libDaisy//src/sys/system.h ****          ** Cache Enabled
  34:../../libDaisy//src/sys/system.h ****          ** */
  35:../../libDaisy//src/sys/system.h ****         void Defaults()
  36:../../libDaisy//src/sys/system.h ****         {
  37:../../libDaisy//src/sys/system.h ****             cpu_freq    = SysClkFreq::FREQ_400MHZ;
  38:../../libDaisy//src/sys/system.h ****             use_dcache  = true;
  39:../../libDaisy//src/sys/system.h ****             use_icache  = true;
  40:../../libDaisy//src/sys/system.h ****             skip_clocks = false;
  41:../../libDaisy//src/sys/system.h ****         }
  42:../../libDaisy//src/sys/system.h **** 
  43:../../libDaisy//src/sys/system.h ****         /** Method to call on the struct to set to boost mode:
  44:../../libDaisy//src/sys/system.h ****          ** CPU Freq set to 480MHz
  45:../../libDaisy//src/sys/system.h ****          ** Cache Enabled
  46:../../libDaisy//src/sys/system.h ****          ** */
  47:../../libDaisy//src/sys/system.h ****         void Boost()
  48:../../libDaisy//src/sys/system.h ****         {
  49:../../libDaisy//src/sys/system.h ****             cpu_freq    = SysClkFreq::FREQ_480MHZ;
  50:../../libDaisy//src/sys/system.h ****             use_dcache  = true;
  51:../../libDaisy//src/sys/system.h ****             use_icache  = true;
  52:../../libDaisy//src/sys/system.h ****             skip_clocks = false;
  53:../../libDaisy//src/sys/system.h ****         }
  54:../../libDaisy//src/sys/system.h **** 
  55:../../libDaisy//src/sys/system.h ****         SysClkFreq cpu_freq;
  56:../../libDaisy//src/sys/system.h ****         bool       use_dcache;
  57:../../libDaisy//src/sys/system.h ****         bool       use_icache;
  58:../../libDaisy//src/sys/system.h ****         bool       skip_clocks;
  59:../../libDaisy//src/sys/system.h ****     };
  60:../../libDaisy//src/sys/system.h **** 
  61:../../libDaisy//src/sys/system.h ****     /** Describes the different regions of memory available to the Daisy */
  62:../../libDaisy//src/sys/system.h ****     enum MemoryRegion
  63:../../libDaisy//src/sys/system.h ****     {
  64:../../libDaisy//src/sys/system.h ****         INTERNAL_FLASH = 0,
  65:../../libDaisy//src/sys/system.h ****         ITCMRAM,
  66:../../libDaisy//src/sys/system.h ****         DTCMRAM,
  67:../../libDaisy//src/sys/system.h ****         SRAM_D1,
  68:../../libDaisy//src/sys/system.h ****         SRAM_D2,
ARM GAS  C:\Users\halcyon\AppData\Local\Temp\ccgaMkHw.s 			page 19


  69:../../libDaisy//src/sys/system.h ****         SRAM_D3,
  70:../../libDaisy//src/sys/system.h ****         SDRAM,
  71:../../libDaisy//src/sys/system.h ****         QSPI,
  72:../../libDaisy//src/sys/system.h ****         INVALID_ADDRESS,
  73:../../libDaisy//src/sys/system.h ****     };
  74:../../libDaisy//src/sys/system.h **** 
  75:../../libDaisy//src/sys/system.h ****     /** Bootloader struct for controlling bootloading parameters */
  76:../../libDaisy//src/sys/system.h ****     struct BootInfo
  77:../../libDaisy//src/sys/system.h ****     {
  78:../../libDaisy//src/sys/system.h ****         enum class Type : uint32_t
  79:../../libDaisy//src/sys/system.h ****         {
  80:../../libDaisy//src/sys/system.h ****             INVALID      = 0x00000000,
  81:../../libDaisy//src/sys/system.h ****             JUMP         = 0xDEADBEEF,
  82:../../libDaisy//src/sys/system.h ****             SKIP_TIMEOUT = 0x5AFEB007,
  83:../../libDaisy//src/sys/system.h ****             INF_TIMEOUT  = 0xB0074EFA,
  84:../../libDaisy//src/sys/system.h ****         } status;
  85:../../libDaisy//src/sys/system.h ****         uint32_t data;
  86:../../libDaisy//src/sys/system.h ****         enum class Version : uint32_t
  87:../../libDaisy//src/sys/system.h ****         {
  88:../../libDaisy//src/sys/system.h ****             LT_v6_0 = 0, // Less than v6.0
  89:../../libDaisy//src/sys/system.h ****             NONE,        // No bootloader present
  90:../../libDaisy//src/sys/system.h ****             v6_0,        // v6.0
  91:../../libDaisy//src/sys/system.h ****             v6_1,        // v6.1 or greater
  92:../../libDaisy//src/sys/system.h ****             LAST
  93:../../libDaisy//src/sys/system.h ****         } version;
  94:../../libDaisy//src/sys/system.h ****     };
  95:../../libDaisy//src/sys/system.h **** 
  96:../../libDaisy//src/sys/system.h ****     System() {}
  97:../../libDaisy//src/sys/system.h ****     ~System() {}
 195              		.loc 13 97 5 view .LVU41
 196              		.loc 13 97 5 is_stmt 0 view .LVU42
 197              	.LBE630:
 198              	.LBB631:
 199              	.LBI631:
 200              		.file 14 "../../libDaisy//src/hid/usb.h"
   1:../../libDaisy//src/hid/usb.h **** #pragma once
   2:../../libDaisy//src/hid/usb.h **** #ifndef DSY_HID_USB_H
   3:../../libDaisy//src/hid/usb.h **** #define DSY_HID_USB_H
   4:../../libDaisy//src/hid/usb.h **** #include <stdint.h>
   5:../../libDaisy//src/hid/usb.h **** #include <stdlib.h>
   6:../../libDaisy//src/hid/usb.h **** 
   7:../../libDaisy//src/hid/usb.h **** namespace daisy
   8:../../libDaisy//src/hid/usb.h **** /** @addtogroup human_interface
   9:../../libDaisy//src/hid/usb.h ****     @{
  10:../../libDaisy//src/hid/usb.h **** */
  11:../../libDaisy//src/hid/usb.h **** 
  12:../../libDaisy//src/hid/usb.h **** {
  13:../../libDaisy//src/hid/usb.h **** /** 
  14:../../libDaisy//src/hid/usb.h ****     @brief Interface for initializing and using the USB Peripherals on the daisy
  15:../../libDaisy//src/hid/usb.h ****     @author Stephen Hensley
  16:../../libDaisy//src/hid/usb.h ****     @date December 2019
  17:../../libDaisy//src/hid/usb.h **** */
  18:../../libDaisy//src/hid/usb.h **** class UsbHandle
  19:../../libDaisy//src/hid/usb.h **** {
  20:../../libDaisy//src/hid/usb.h ****   public:
  21:../../libDaisy//src/hid/usb.h ****     /** Return values for USBHandle Functions */
  22:../../libDaisy//src/hid/usb.h ****     enum class Result
ARM GAS  C:\Users\halcyon\AppData\Local\Temp\ccgaMkHw.s 			page 20


  23:../../libDaisy//src/hid/usb.h ****     {
  24:../../libDaisy//src/hid/usb.h ****         OK,
  25:../../libDaisy//src/hid/usb.h ****         ERR,
  26:../../libDaisy//src/hid/usb.h ****     };
  27:../../libDaisy//src/hid/usb.h **** 
  28:../../libDaisy//src/hid/usb.h ****     /** Specified which of the two USB Peripherals to initialize. */
  29:../../libDaisy//src/hid/usb.h ****     enum UsbPeriph
  30:../../libDaisy//src/hid/usb.h ****     {
  31:../../libDaisy//src/hid/usb.h ****         FS_INTERNAL, /**< Internal pin */
  32:../../libDaisy//src/hid/usb.h ****         FS_EXTERNAL, /**< FS External D+ pin is Pin 38 (GPIO32). FS External D- pin is Pin 37 (GPIO
  33:../../libDaisy//src/hid/usb.h ****         FS_BOTH,     /**< Both */
  34:../../libDaisy//src/hid/usb.h ****     };
  35:../../libDaisy//src/hid/usb.h **** 
  36:../../libDaisy//src/hid/usb.h **** 
  37:../../libDaisy//src/hid/usb.h ****     /** Function called upon reception of a buffer */
  38:../../libDaisy//src/hid/usb.h ****     typedef void (*ReceiveCallback)(uint8_t* buff, uint32_t* len);
  39:../../libDaisy//src/hid/usb.h **** 
  40:../../libDaisy//src/hid/usb.h ****     UsbHandle() {}
  41:../../libDaisy//src/hid/usb.h **** 
  42:../../libDaisy//src/hid/usb.h ****     ~UsbHandle() {}
 201              		.loc 14 42 5 is_stmt 1 view .LVU43
 202              		.loc 14 42 5 is_stmt 0 view .LVU44
 203              	.LBE631:
 204              	.LBB632:
 205              	.LBI632:
 206              		.file 15 "../../libDaisy//src/per/adc.h"
   1:../../libDaisy//src/per/adc.h **** #pragma once
   2:../../libDaisy//src/per/adc.h **** #ifndef DSY_ADC_H
   3:../../libDaisy//src/per/adc.h **** #define DSY_ADC_H /**< Macro */
   4:../../libDaisy//src/per/adc.h **** #include <stdint.h>
   5:../../libDaisy//src/per/adc.h **** #include <stdlib.h>
   6:../../libDaisy//src/per/adc.h **** #include "daisy_core.h"
   7:../../libDaisy//src/per/adc.h **** #include "per/gpio.h"
   8:../../libDaisy//src/per/adc.h **** 
   9:../../libDaisy//src/per/adc.h **** #define DSY_ADC_MAX_CHANNELS 16 /**< Maximum number of ADC channels */
  10:../../libDaisy//src/per/adc.h **** 
  11:../../libDaisy//src/per/adc.h **** namespace daisy
  12:../../libDaisy//src/per/adc.h **** {
  13:../../libDaisy//src/per/adc.h **** /** @addtogroup per_analog
  14:../../libDaisy//src/per/adc.h ****     @{
  15:../../libDaisy//src/per/adc.h **** */
  16:../../libDaisy//src/per/adc.h **** 
  17:../../libDaisy//src/per/adc.h **** /* While there may not be many configuration options here,
  18:../../libDaisy//src/per/adc.h **** using a struct like this allows us to add more configuration
  19:../../libDaisy//src/per/adc.h **** later without breaking existing functionality.
  20:../../libDaisy//src/per/adc.h **** */
  21:../../libDaisy//src/per/adc.h **** 
  22:../../libDaisy//src/per/adc.h **** /** @brief   Configuration Structure for an ADC Channel 
  23:../../libDaisy//src/per/adc.h ****  *  @details This can be used to configure a a single input, 
  24:../../libDaisy//src/per/adc.h ****  *           or a multiplexed input, allowing up to 8 inputs on 
  25:../../libDaisy//src/per/adc.h ****  *           one channel.
  26:../../libDaisy//src/per/adc.h ****  *  @note    Sharing data lines to multiple muxes _is_ possible, but
  27:../../libDaisy//src/per/adc.h ****  *           each channel sharing data lines must be set to the maximum
  28:../../libDaisy//src/per/adc.h ****  *           number of channels, even if some multiplexers have fewer
  29:../../libDaisy//src/per/adc.h ****  *           inputs connected.
  30:../../libDaisy//src/per/adc.h **** */
  31:../../libDaisy//src/per/adc.h **** struct AdcChannelConfig
ARM GAS  C:\Users\halcyon\AppData\Local\Temp\ccgaMkHw.s 			page 21


  32:../../libDaisy//src/per/adc.h **** {
  33:../../libDaisy//src/per/adc.h ****     /** Which pin to use for multiplexing */
  34:../../libDaisy//src/per/adc.h ****     enum MuxPin
  35:../../libDaisy//src/per/adc.h ****     {
  36:../../libDaisy//src/per/adc.h ****         MUX_SEL_0,    /**< & */
  37:../../libDaisy//src/per/adc.h ****         MUX_SEL_1,    /**< & */
  38:../../libDaisy//src/per/adc.h ****         MUX_SEL_2,    /**< & */
  39:../../libDaisy//src/per/adc.h ****         MUX_SEL_LAST, /**< & */
  40:../../libDaisy//src/per/adc.h ****     };
  41:../../libDaisy//src/per/adc.h **** 
  42:../../libDaisy//src/per/adc.h ****     /** \brief per channel conversion speed added to fixed time based on bitdepth, etc. */
  43:../../libDaisy//src/per/adc.h ****     enum ConversionSpeed
  44:../../libDaisy//src/per/adc.h ****     {
  45:../../libDaisy//src/per/adc.h ****         SPEED_1CYCLES_5,
  46:../../libDaisy//src/per/adc.h ****         SPEED_2CYCLES_5,
  47:../../libDaisy//src/per/adc.h ****         SPEED_8CYCLES_5,
  48:../../libDaisy//src/per/adc.h ****         SPEED_16CYCLES_5,
  49:../../libDaisy//src/per/adc.h ****         SPEED_32CYCLES_5,
  50:../../libDaisy//src/per/adc.h ****         SPEED_64CYCLES_5,
  51:../../libDaisy//src/per/adc.h ****         SPEED_387CYCLES_5,
  52:../../libDaisy//src/per/adc.h ****         SPEED_810CYCLES_5,
  53:../../libDaisy//src/per/adc.h ****     };
  54:../../libDaisy//src/per/adc.h **** 
  55:../../libDaisy//src/per/adc.h ****     /** Initializes a single ADC pin as an ADC. 
  56:../../libDaisy//src/per/adc.h ****     \param pin Pin to init.
  57:../../libDaisy//src/per/adc.h ****     \param speed conversion speed for this pin defaults to 8.5 cycles
  58:../../libDaisy//src/per/adc.h ****      */
  59:../../libDaisy//src/per/adc.h ****     void InitSingle(dsy_gpio_pin pin, ConversionSpeed speed = SPEED_8CYCLES_5);
  60:../../libDaisy//src/per/adc.h **** 
  61:../../libDaisy//src/per/adc.h ****     /** 
  62:../../libDaisy//src/per/adc.h ****     Initializes a single ADC pin as a Multiplexed ADC.
  63:../../libDaisy//src/per/adc.h ****     Requires a CD405X Multiplexer connected to the pin.
  64:../../libDaisy//src/per/adc.h ****     You only need to supply the mux pins that are required,
  65:../../libDaisy//src/per/adc.h ****     e.g. a 4052 mux would only require mux_0 and mux_1.
  66:../../libDaisy//src/per/adc.h ****     Internal Callbacks handle the pin addressing.
  67:../../libDaisy//src/per/adc.h ****     \param adc_pin &
  68:../../libDaisy//src/per/adc.h ****     \param mux_channels must be 1-8
  69:../../libDaisy//src/per/adc.h ****     \param mux_0 First mux pin
  70:../../libDaisy//src/per/adc.h ****     \param mux_1 Second mux pin
  71:../../libDaisy//src/per/adc.h ****     \param mux_2 Third mux pin
  72:../../libDaisy//src/per/adc.h ****     \param speed conversion speed for this pin defaults to 8.5 cycles
  73:../../libDaisy//src/per/adc.h ****     */
  74:../../libDaisy//src/per/adc.h ****     void InitMux(dsy_gpio_pin    adc_pin,
  75:../../libDaisy//src/per/adc.h ****                  size_t          mux_channels,
  76:../../libDaisy//src/per/adc.h ****                  dsy_gpio_pin    mux_0,
  77:../../libDaisy//src/per/adc.h ****                  dsy_gpio_pin    mux_1 = {DSY_GPIOX, 0},
  78:../../libDaisy//src/per/adc.h ****                  dsy_gpio_pin    mux_2 = {DSY_GPIOX, 0},
  79:../../libDaisy//src/per/adc.h ****                  ConversionSpeed speed = SPEED_8CYCLES_5);
  80:../../libDaisy//src/per/adc.h **** 
  81:../../libDaisy//src/per/adc.h ****     dsy_gpio        pin_;                   /**< & */
  82:../../libDaisy//src/per/adc.h ****     dsy_gpio        mux_pin_[MUX_SEL_LAST]; /**< & */
  83:../../libDaisy//src/per/adc.h ****     uint8_t         mux_channels_;          /**< & */
  84:../../libDaisy//src/per/adc.h ****     ConversionSpeed speed_;
  85:../../libDaisy//src/per/adc.h **** };
  86:../../libDaisy//src/per/adc.h **** 
  87:../../libDaisy//src/per/adc.h **** /**
  88:../../libDaisy//src/per/adc.h ****    @brief Handler for analog to digital conversion
ARM GAS  C:\Users\halcyon\AppData\Local\Temp\ccgaMkHw.s 			page 22


  89:../../libDaisy//src/per/adc.h **** */
  90:../../libDaisy//src/per/adc.h **** class AdcHandle
  91:../../libDaisy//src/per/adc.h **** {
  92:../../libDaisy//src/per/adc.h ****   public:
  93:../../libDaisy//src/per/adc.h ****     /** Supported oversampling amounts */
  94:../../libDaisy//src/per/adc.h ****     enum OverSampling
  95:../../libDaisy//src/per/adc.h ****     {
  96:../../libDaisy//src/per/adc.h ****         OVS_NONE, /**< & */
  97:../../libDaisy//src/per/adc.h ****         OVS_4,    /**< & */
  98:../../libDaisy//src/per/adc.h ****         OVS_8,    /**< & */
  99:../../libDaisy//src/per/adc.h ****         OVS_16,   /**< & */
 100:../../libDaisy//src/per/adc.h ****         OVS_32,   /**< & */
 101:../../libDaisy//src/per/adc.h ****         OVS_64,   /**< & */
 102:../../libDaisy//src/per/adc.h ****         OVS_128,  /**< & */
 103:../../libDaisy//src/per/adc.h ****         OVS_256,  /**< & */
 104:../../libDaisy//src/per/adc.h ****         OVS_512,  /**< & */
 105:../../libDaisy//src/per/adc.h ****         OVS_1024, /**< & */
 106:../../libDaisy//src/per/adc.h ****         OVS_LAST, /**< & */
 107:../../libDaisy//src/per/adc.h ****     };
 108:../../libDaisy//src/per/adc.h **** 
 109:../../libDaisy//src/per/adc.h ****     AdcHandle() {}
 110:../../libDaisy//src/per/adc.h ****     ~AdcHandle() {}
 207              		.loc 15 110 5 is_stmt 1 view .LVU45
 208              		.loc 15 110 5 is_stmt 0 view .LVU46
 209              	.LBE632:
 210              	.LBB633:
 211              	.LBI633:
 212              		.file 16 "../../libDaisy//src/hid/audio.h"
   1:../../libDaisy//src/hid/audio.h **** #ifndef DSY_AUDIO_H
   2:../../libDaisy//src/hid/audio.h **** #define DSY_AUDIO_H /**< & */
   3:../../libDaisy//src/hid/audio.h **** 
   4:../../libDaisy//src/hid/audio.h **** #include "per/sai.h"
   5:../../libDaisy//src/hid/audio.h **** 
   6:../../libDaisy//src/hid/audio.h **** namespace daisy
   7:../../libDaisy//src/hid/audio.h **** {
   8:../../libDaisy//src/hid/audio.h **** /** @brief Audio Engine Handle
   9:../../libDaisy//src/hid/audio.h ****  *  @ingroup audio 
  10:../../libDaisy//src/hid/audio.h ****  *  @details This class allows for higher level access to an audio engine.
  11:../../libDaisy//src/hid/audio.h ****  *           If you're using a SOM like the DaisySeed or DaisyPatchSM (or any 
  12:../../libDaisy//src/hid/audio.h ****  *            board that includes one of those objects) then the intialization
  13:../../libDaisy//src/hid/audio.h ****  *            is already taken  care of.
  14:../../libDaisy//src/hid/audio.h ****  *           If you're setting up your own custom hardware, or need to make changes
  15:../../libDaisy//src/hid/audio.h ****  *           you will have to take the following steps:
  16:../../libDaisy//src/hid/audio.h ****  *             1. Create and Initialize an SaiHandle or two depending on your requirements
  17:../../libDaisy//src/hid/audio.h ****  *             2. Initialize the Audio Handle with the desired settings and the Initialized SaiHand
  18:../../libDaisy//src/hid/audio.h ****  *             3. If the connected codec requires special configuration or initialization, do so
  19:../../libDaisy//src/hid/audio.h ****  *             4. Write a callback method using either the AudioCallback or the InterleavingAudioCa
  20:../../libDaisy//src/hid/audio.h ****  *             5. Start the Audio using one of the StartAudio function
  21:../../libDaisy//src/hid/audio.h ****  */
  22:../../libDaisy//src/hid/audio.h **** class AudioHandle
  23:../../libDaisy//src/hid/audio.h **** {
  24:../../libDaisy//src/hid/audio.h ****   public:
  25:../../libDaisy//src/hid/audio.h ****     /** Manually configurable details about the Audio Engine */
  26:../../libDaisy//src/hid/audio.h ****     /** TODO: Figure out how to get samplerate in here. */
  27:../../libDaisy//src/hid/audio.h ****     struct Config
  28:../../libDaisy//src/hid/audio.h ****     {
  29:../../libDaisy//src/hid/audio.h ****         /** number of samples to process per callback */
ARM GAS  C:\Users\halcyon\AppData\Local\Temp\ccgaMkHw.s 			page 23


  30:../../libDaisy//src/hid/audio.h ****         size_t blocksize;
  31:../../libDaisy//src/hid/audio.h **** 
  32:../../libDaisy//src/hid/audio.h ****         /**< Sample rate of audio */
  33:../../libDaisy//src/hid/audio.h ****         SaiHandle::Config::SampleRate samplerate;
  34:../../libDaisy//src/hid/audio.h **** 
  35:../../libDaisy//src/hid/audio.h ****         /** factor for adjustment before and after callback for hardware that may have extra headro
  36:../../libDaisy//src/hid/audio.h ****         float postgain;
  37:../../libDaisy//src/hid/audio.h **** 
  38:../../libDaisy//src/hid/audio.h ****         /** factor for additional one-sided compensation to audio path for hardware that may
  39:../../libDaisy//src/hid/audio.h ****          *  have unequal input/output ranges
  40:../../libDaisy//src/hid/audio.h ****          */
  41:../../libDaisy//src/hid/audio.h ****         float output_compensation;
  42:../../libDaisy//src/hid/audio.h **** 
  43:../../libDaisy//src/hid/audio.h ****         /** Sets default values for config struct */
  44:../../libDaisy//src/hid/audio.h ****         Config()
  45:../../libDaisy//src/hid/audio.h ****         : blocksize(48),
  46:../../libDaisy//src/hid/audio.h ****           samplerate(SaiHandle::Config::SampleRate::SAI_48KHZ),
  47:../../libDaisy//src/hid/audio.h ****           postgain(1.f),
  48:../../libDaisy//src/hid/audio.h ****           output_compensation(1.f)
  49:../../libDaisy//src/hid/audio.h ****         {
  50:../../libDaisy//src/hid/audio.h ****         }
  51:../../libDaisy//src/hid/audio.h ****     };
  52:../../libDaisy//src/hid/audio.h **** 
  53:../../libDaisy//src/hid/audio.h ****     enum class Result
  54:../../libDaisy//src/hid/audio.h ****     {
  55:../../libDaisy//src/hid/audio.h ****         OK,
  56:../../libDaisy//src/hid/audio.h ****         ERR,
  57:../../libDaisy//src/hid/audio.h ****     };
  58:../../libDaisy//src/hid/audio.h **** 
  59:../../libDaisy//src/hid/audio.h ****     /** Non-Interleaving input buffer
  60:../../libDaisy//src/hid/audio.h ****      * Buffer arranged by float[chn][sample] 
  61:../../libDaisy//src/hid/audio.h ****      * const so that the user can't modify the input
  62:../../libDaisy//src/hid/audio.h ****      */
  63:../../libDaisy//src/hid/audio.h ****     typedef const float* const* InputBuffer;
  64:../../libDaisy//src/hid/audio.h **** 
  65:../../libDaisy//src/hid/audio.h ****     /** Non-Interleaving output buffer
  66:../../libDaisy//src/hid/audio.h ****      * Arranged by float[chn][sample] 
  67:../../libDaisy//src/hid/audio.h ****      */
  68:../../libDaisy//src/hid/audio.h ****     typedef float** OutputBuffer;
  69:../../libDaisy//src/hid/audio.h **** 
  70:../../libDaisy//src/hid/audio.h ****     /** Type for a Non-Interleaving audio callback 
  71:../../libDaisy//src/hid/audio.h ****      * Non-Interleaving audio callbacks in daisy will be of this type
  72:../../libDaisy//src/hid/audio.h ****      */
  73:../../libDaisy//src/hid/audio.h ****     typedef void (*AudioCallback)(InputBuffer  in,
  74:../../libDaisy//src/hid/audio.h ****                                   OutputBuffer out,
  75:../../libDaisy//src/hid/audio.h ****                                   size_t       size);
  76:../../libDaisy//src/hid/audio.h **** 
  77:../../libDaisy//src/hid/audio.h ****     /** Interleaving Input buffer
  78:../../libDaisy//src/hid/audio.h ****      ** audio is prepared as { L0, R0, L1, R1, . . . LN, RN }]
  79:../../libDaisy//src/hid/audio.h ****      ** this is const, as the user shouldn't modify it
  80:../../libDaisy//src/hid/audio.h ****     */
  81:../../libDaisy//src/hid/audio.h ****     typedef const float* InterleavingInputBuffer;
  82:../../libDaisy//src/hid/audio.h **** 
  83:../../libDaisy//src/hid/audio.h ****     /** Interleaving Output buffer 
  84:../../libDaisy//src/hid/audio.h ****      ** audio is prepared as { L0, R0, L1, R1, . . . LN, RN }
  85:../../libDaisy//src/hid/audio.h ****     */
  86:../../libDaisy//src/hid/audio.h ****     typedef float* InterleavingOutputBuffer;
ARM GAS  C:\Users\halcyon\AppData\Local\Temp\ccgaMkHw.s 			page 24


  87:../../libDaisy//src/hid/audio.h **** 
  88:../../libDaisy//src/hid/audio.h ****     /** Interleaving Audio Callback 
  89:../../libDaisy//src/hid/audio.h ****      * Interleaving audio callbacks in daisy must be of this type
  90:../../libDaisy//src/hid/audio.h ****      */
  91:../../libDaisy//src/hid/audio.h ****     typedef void (*InterleavingAudioCallback)(InterleavingInputBuffer  in,
  92:../../libDaisy//src/hid/audio.h ****                                               InterleavingOutputBuffer out,
  93:../../libDaisy//src/hid/audio.h ****                                               size_t                   size);
  94:../../libDaisy//src/hid/audio.h **** 
  95:../../libDaisy//src/hid/audio.h ****     AudioHandle() : pimpl_(nullptr) {}
  96:../../libDaisy//src/hid/audio.h ****     ~AudioHandle() {}
 213              		.loc 16 96 5 is_stmt 1 view .LVU47
 214              		.loc 16 96 5 is_stmt 0 view .LVU48
 215              	.LBE633:
 216              	.LBE629:
 217              		.loc 4 36 18 view .LVU49
 218 0000 7047     		bx	lr
 219              		.cfi_endproc
 220              	.LFE2564:
 222              		.weak	_ZN5daisy8DaisyPodD1Ev
 223              		.thumb_set _ZN5daisy8DaisyPodD1Ev,_ZN5daisy8DaisyPodD2Ev
 224 0002 00BF     		.section	.text._ZN5daisy11OledDisplayINS_13SSD130xDriverILj128ELj64ENS_24SSD130x4WireSpiTransportE
 225              		.align	1
 226              		.p2align 2,,3
 227              		.weak	_ZN5daisy11OledDisplayINS_13SSD130xDriverILj128ELj64ENS_24SSD130x4WireSpiTransportEEEE4FillE
 228              		.syntax unified
 229              		.thumb
 230              		.thumb_func
 231              		.fpu fpv5-d16
 233              	_ZN5daisy11OledDisplayINS_13SSD130xDriverILj128ELj64ENS_24SSD130x4WireSpiTransportEEEE4FillEb:
 234              	.LVL3:
 235              	.LFB3483:
 236              		.file 17 "../../libDaisy//src/hid/disp/oled_display.h"
   1:../../libDaisy//src/hid/disp/oled_display.h **** #pragma once
   2:../../libDaisy//src/hid/disp/oled_display.h **** #ifndef DSY_OLED_DISPLAY_H
   3:../../libDaisy//src/hid/disp/oled_display.h **** #define DSY_OLED_DISPLAY_H /**< Macro */
   4:../../libDaisy//src/hid/disp/oled_display.h **** 
   5:../../libDaisy//src/hid/disp/oled_display.h **** #include "display.h"
   6:../../libDaisy//src/hid/disp/oled_display.h **** 
   7:../../libDaisy//src/hid/disp/oled_display.h **** namespace daisy
   8:../../libDaisy//src/hid/disp/oled_display.h **** {
   9:../../libDaisy//src/hid/disp/oled_display.h **** /** 
  10:../../libDaisy//src/hid/disp/oled_display.h ****  * This class is for drawing to a monochrome OLED display. 
  11:../../libDaisy//src/hid/disp/oled_display.h ****  * @ingroup device
  12:../../libDaisy//src/hid/disp/oled_display.h **** */
  13:../../libDaisy//src/hid/disp/oled_display.h **** template <typename DisplayDriver>
  14:../../libDaisy//src/hid/disp/oled_display.h **** class OledDisplay : public OneBitGraphicsDisplayImpl<OledDisplay<DisplayDriver>>
  15:../../libDaisy//src/hid/disp/oled_display.h **** {
  16:../../libDaisy//src/hid/disp/oled_display.h ****   public:
  17:../../libDaisy//src/hid/disp/oled_display.h ****     OledDisplay() {}
  18:../../libDaisy//src/hid/disp/oled_display.h ****     virtual ~OledDisplay() {}
  19:../../libDaisy//src/hid/disp/oled_display.h **** 
  20:../../libDaisy//src/hid/disp/oled_display.h ****     struct Config
  21:../../libDaisy//src/hid/disp/oled_display.h ****     {
  22:../../libDaisy//src/hid/disp/oled_display.h ****         typename DisplayDriver::Config driver_config;
  23:../../libDaisy//src/hid/disp/oled_display.h ****     };
  24:../../libDaisy//src/hid/disp/oled_display.h **** 
  25:../../libDaisy//src/hid/disp/oled_display.h ****     void Init(Config config) { driver_.Init(config.driver_config); }
ARM GAS  C:\Users\halcyon\AppData\Local\Temp\ccgaMkHw.s 			page 25


  26:../../libDaisy//src/hid/disp/oled_display.h **** 
  27:../../libDaisy//src/hid/disp/oled_display.h ****     uint16_t Height() const override { return driver_.Height(); }
  28:../../libDaisy//src/hid/disp/oled_display.h ****     uint16_t Width() const override { return driver_.Width(); }
  29:../../libDaisy//src/hid/disp/oled_display.h **** 
  30:../../libDaisy//src/hid/disp/oled_display.h ****     /** 
  31:../../libDaisy//src/hid/disp/oled_display.h ****     Fills the entire display with either on/off.
  32:../../libDaisy//src/hid/disp/oled_display.h ****     \param on Sets on or off.
  33:../../libDaisy//src/hid/disp/oled_display.h ****     */
  34:../../libDaisy//src/hid/disp/oled_display.h ****     void Fill(bool on) override { driver_.Fill(on); }
 237              		.loc 17 34 10 is_stmt 1 view -0
 238              		.cfi_startproc
 239              		@ args = 0, pretend = 0, frame = 0
 240              		@ frame_needed = 0, uses_anonymous_args = 0
 241              		@ link register save eliminated.
 242              	.LBB634:
 243              	.LBI634:
 244              		.file 18 "../../libDaisy//src/dev/oled_ssd130x.h"
   1:../../libDaisy//src/dev/oled_ssd130x.h **** #pragma once
   2:../../libDaisy//src/dev/oled_ssd130x.h **** #ifndef SA_OLED_SSD130X_H
   3:../../libDaisy//src/dev/oled_ssd130x.h **** #define SA_OLED_SSD130X_H /**< & */
   4:../../libDaisy//src/dev/oled_ssd130x.h **** 
   5:../../libDaisy//src/dev/oled_ssd130x.h **** #include "per/i2c.h"
   6:../../libDaisy//src/dev/oled_ssd130x.h **** #include "per/spi.h"
   7:../../libDaisy//src/dev/oled_ssd130x.h **** #include "per/gpio.h"
   8:../../libDaisy//src/dev/oled_ssd130x.h **** #include "sys/system.h"
   9:../../libDaisy//src/dev/oled_ssd130x.h **** 
  10:../../libDaisy//src/dev/oled_ssd130x.h **** namespace daisy
  11:../../libDaisy//src/dev/oled_ssd130x.h **** {
  12:../../libDaisy//src/dev/oled_ssd130x.h **** /**
  13:../../libDaisy//src/dev/oled_ssd130x.h ****  * I2C Transport for SSD1306 / SSD1309 OLED display devices
  14:../../libDaisy//src/dev/oled_ssd130x.h ****  */
  15:../../libDaisy//src/dev/oled_ssd130x.h **** class SSD130xI2CTransport
  16:../../libDaisy//src/dev/oled_ssd130x.h **** {
  17:../../libDaisy//src/dev/oled_ssd130x.h ****   public:
  18:../../libDaisy//src/dev/oled_ssd130x.h ****     struct Config
  19:../../libDaisy//src/dev/oled_ssd130x.h ****     {
  20:../../libDaisy//src/dev/oled_ssd130x.h ****         Config()
  21:../../libDaisy//src/dev/oled_ssd130x.h ****         {
  22:../../libDaisy//src/dev/oled_ssd130x.h ****             // Intialize using defaults
  23:../../libDaisy//src/dev/oled_ssd130x.h ****             Defaults();
  24:../../libDaisy//src/dev/oled_ssd130x.h ****         }
  25:../../libDaisy//src/dev/oled_ssd130x.h ****         I2CHandle::Config i2c_config;
  26:../../libDaisy//src/dev/oled_ssd130x.h ****         uint8_t           i2c_address;
  27:../../libDaisy//src/dev/oled_ssd130x.h ****         void              Defaults()
  28:../../libDaisy//src/dev/oled_ssd130x.h ****         {
  29:../../libDaisy//src/dev/oled_ssd130x.h ****             i2c_config.periph         = I2CHandle::Config::Peripheral::I2C_1;
  30:../../libDaisy//src/dev/oled_ssd130x.h ****             i2c_config.speed          = I2CHandle::Config::Speed::I2C_1MHZ;
  31:../../libDaisy//src/dev/oled_ssd130x.h ****             i2c_config.mode           = I2CHandle::Config::Mode::I2C_MASTER;
  32:../../libDaisy//src/dev/oled_ssd130x.h ****             i2c_config.pin_config.scl = {DSY_GPIOB, 8};
  33:../../libDaisy//src/dev/oled_ssd130x.h ****             i2c_config.pin_config.sda = {DSY_GPIOB, 9};
  34:../../libDaisy//src/dev/oled_ssd130x.h ****             i2c_address               = 0x3C;
  35:../../libDaisy//src/dev/oled_ssd130x.h ****         }
  36:../../libDaisy//src/dev/oled_ssd130x.h ****     };
  37:../../libDaisy//src/dev/oled_ssd130x.h ****     void Init(const Config& config)
  38:../../libDaisy//src/dev/oled_ssd130x.h ****     {
  39:../../libDaisy//src/dev/oled_ssd130x.h ****         i2c_address_ = config.i2c_address;
  40:../../libDaisy//src/dev/oled_ssd130x.h ****         i2c_.Init(config.i2c_config);
ARM GAS  C:\Users\halcyon\AppData\Local\Temp\ccgaMkHw.s 			page 26


  41:../../libDaisy//src/dev/oled_ssd130x.h ****     };
  42:../../libDaisy//src/dev/oled_ssd130x.h ****     void SendCommand(uint8_t cmd)
  43:../../libDaisy//src/dev/oled_ssd130x.h ****     {
  44:../../libDaisy//src/dev/oled_ssd130x.h ****         uint8_t buf[2] = {0X00, cmd};
  45:../../libDaisy//src/dev/oled_ssd130x.h ****         i2c_.TransmitBlocking(i2c_address_, buf, 2, 1000);
  46:../../libDaisy//src/dev/oled_ssd130x.h ****     };
  47:../../libDaisy//src/dev/oled_ssd130x.h **** 
  48:../../libDaisy//src/dev/oled_ssd130x.h ****     void SendData(uint8_t* buff, size_t size)
  49:../../libDaisy//src/dev/oled_ssd130x.h ****     {
  50:../../libDaisy//src/dev/oled_ssd130x.h ****         for(size_t i = 0; i < size; i++)
  51:../../libDaisy//src/dev/oled_ssd130x.h ****         {
  52:../../libDaisy//src/dev/oled_ssd130x.h ****             uint8_t buf[2] = {0X40, buff[i]};
  53:../../libDaisy//src/dev/oled_ssd130x.h ****             i2c_.TransmitBlocking(i2c_address_, buf, 2, 1000);
  54:../../libDaisy//src/dev/oled_ssd130x.h ****         }
  55:../../libDaisy//src/dev/oled_ssd130x.h ****     };
  56:../../libDaisy//src/dev/oled_ssd130x.h **** 
  57:../../libDaisy//src/dev/oled_ssd130x.h ****   private:
  58:../../libDaisy//src/dev/oled_ssd130x.h ****     daisy::I2CHandle i2c_;
  59:../../libDaisy//src/dev/oled_ssd130x.h ****     uint8_t          i2c_address_;
  60:../../libDaisy//src/dev/oled_ssd130x.h **** };
  61:../../libDaisy//src/dev/oled_ssd130x.h **** 
  62:../../libDaisy//src/dev/oled_ssd130x.h **** /**
  63:../../libDaisy//src/dev/oled_ssd130x.h ****  * 4 Wire SPI Transport for SSD1306 / SSD1309 OLED display devices
  64:../../libDaisy//src/dev/oled_ssd130x.h ****  */
  65:../../libDaisy//src/dev/oled_ssd130x.h **** class SSD130x4WireSpiTransport
  66:../../libDaisy//src/dev/oled_ssd130x.h **** {
  67:../../libDaisy//src/dev/oled_ssd130x.h ****   public:
  68:../../libDaisy//src/dev/oled_ssd130x.h ****     struct Config
  69:../../libDaisy//src/dev/oled_ssd130x.h ****     {
  70:../../libDaisy//src/dev/oled_ssd130x.h ****         Config()
  71:../../libDaisy//src/dev/oled_ssd130x.h ****         {
  72:../../libDaisy//src/dev/oled_ssd130x.h ****             // Initialize using defaults
  73:../../libDaisy//src/dev/oled_ssd130x.h ****             Defaults();
  74:../../libDaisy//src/dev/oled_ssd130x.h ****         }
  75:../../libDaisy//src/dev/oled_ssd130x.h ****         SpiHandle::Config spi_config;
  76:../../libDaisy//src/dev/oled_ssd130x.h ****         struct
  77:../../libDaisy//src/dev/oled_ssd130x.h ****         {
  78:../../libDaisy//src/dev/oled_ssd130x.h ****             dsy_gpio_pin dc;    /**< & */
  79:../../libDaisy//src/dev/oled_ssd130x.h ****             dsy_gpio_pin reset; /**< & */
  80:../../libDaisy//src/dev/oled_ssd130x.h ****         } pin_config;
  81:../../libDaisy//src/dev/oled_ssd130x.h ****         void Defaults()
  82:../../libDaisy//src/dev/oled_ssd130x.h ****         {
  83:../../libDaisy//src/dev/oled_ssd130x.h ****             // SPI peripheral config
  84:../../libDaisy//src/dev/oled_ssd130x.h ****             spi_config.periph = SpiHandle::Config::Peripheral::SPI_1;
  85:../../libDaisy//src/dev/oled_ssd130x.h ****             spi_config.mode   = SpiHandle::Config::Mode::MASTER;
  86:../../libDaisy//src/dev/oled_ssd130x.h ****             spi_config.direction
  87:../../libDaisy//src/dev/oled_ssd130x.h ****                 = SpiHandle::Config::Direction::TWO_LINES_TX_ONLY;
  88:../../libDaisy//src/dev/oled_ssd130x.h ****             spi_config.datasize       = 8;
  89:../../libDaisy//src/dev/oled_ssd130x.h ****             spi_config.clock_polarity = SpiHandle::Config::ClockPolarity::LOW;
  90:../../libDaisy//src/dev/oled_ssd130x.h ****             spi_config.clock_phase    = SpiHandle::Config::ClockPhase::ONE_EDGE;
  91:../../libDaisy//src/dev/oled_ssd130x.h ****             spi_config.nss            = SpiHandle::Config::NSS::HARD_OUTPUT;
  92:../../libDaisy//src/dev/oled_ssd130x.h ****             spi_config.baud_prescaler = SpiHandle::Config::BaudPrescaler::PS_8;
  93:../../libDaisy//src/dev/oled_ssd130x.h ****             // SPI pin config
  94:../../libDaisy//src/dev/oled_ssd130x.h ****             spi_config.pin_config.sclk = {DSY_GPIOG, 11};
  95:../../libDaisy//src/dev/oled_ssd130x.h ****             spi_config.pin_config.miso = {DSY_GPIOX, 0};
  96:../../libDaisy//src/dev/oled_ssd130x.h ****             spi_config.pin_config.mosi = {DSY_GPIOB, 5};
  97:../../libDaisy//src/dev/oled_ssd130x.h ****             spi_config.pin_config.nss  = {DSY_GPIOG, 10};
ARM GAS  C:\Users\halcyon\AppData\Local\Temp\ccgaMkHw.s 			page 27


  98:../../libDaisy//src/dev/oled_ssd130x.h ****             // SSD130x control pin config
  99:../../libDaisy//src/dev/oled_ssd130x.h ****             pin_config.dc    = {DSY_GPIOB, 4};
 100:../../libDaisy//src/dev/oled_ssd130x.h ****             pin_config.reset = {DSY_GPIOB, 15};
 101:../../libDaisy//src/dev/oled_ssd130x.h ****         }
 102:../../libDaisy//src/dev/oled_ssd130x.h ****     };
 103:../../libDaisy//src/dev/oled_ssd130x.h ****     void Init(const Config& config)
 104:../../libDaisy//src/dev/oled_ssd130x.h ****     {
 105:../../libDaisy//src/dev/oled_ssd130x.h ****         // Initialize both GPIO
 106:../../libDaisy//src/dev/oled_ssd130x.h ****         pin_dc_.mode = DSY_GPIO_MODE_OUTPUT_PP;
 107:../../libDaisy//src/dev/oled_ssd130x.h ****         pin_dc_.pin  = config.pin_config.dc;
 108:../../libDaisy//src/dev/oled_ssd130x.h ****         dsy_gpio_init(&pin_dc_);
 109:../../libDaisy//src/dev/oled_ssd130x.h ****         pin_reset_.mode = DSY_GPIO_MODE_OUTPUT_PP;
 110:../../libDaisy//src/dev/oled_ssd130x.h ****         pin_reset_.pin  = config.pin_config.reset;
 111:../../libDaisy//src/dev/oled_ssd130x.h ****         dsy_gpio_init(&pin_reset_);
 112:../../libDaisy//src/dev/oled_ssd130x.h **** 
 113:../../libDaisy//src/dev/oled_ssd130x.h ****         // Initialize SPI
 114:../../libDaisy//src/dev/oled_ssd130x.h ****         spi_.Init(config.spi_config);
 115:../../libDaisy//src/dev/oled_ssd130x.h **** 
 116:../../libDaisy//src/dev/oled_ssd130x.h ****         // Reset and Configure OLED.
 117:../../libDaisy//src/dev/oled_ssd130x.h ****         dsy_gpio_write(&pin_reset_, 0);
 118:../../libDaisy//src/dev/oled_ssd130x.h ****         System::Delay(10);
 119:../../libDaisy//src/dev/oled_ssd130x.h ****         dsy_gpio_write(&pin_reset_, 1);
 120:../../libDaisy//src/dev/oled_ssd130x.h ****         System::Delay(10);
 121:../../libDaisy//src/dev/oled_ssd130x.h ****     };
 122:../../libDaisy//src/dev/oled_ssd130x.h ****     void SendCommand(uint8_t cmd)
 123:../../libDaisy//src/dev/oled_ssd130x.h ****     {
 124:../../libDaisy//src/dev/oled_ssd130x.h ****         dsy_gpio_write(&pin_dc_, 0);
 125:../../libDaisy//src/dev/oled_ssd130x.h ****         spi_.BlockingTransmit(&cmd, 1);
 126:../../libDaisy//src/dev/oled_ssd130x.h ****     };
 127:../../libDaisy//src/dev/oled_ssd130x.h **** 
 128:../../libDaisy//src/dev/oled_ssd130x.h ****     void SendData(uint8_t* buff, size_t size)
 129:../../libDaisy//src/dev/oled_ssd130x.h ****     {
 130:../../libDaisy//src/dev/oled_ssd130x.h ****         dsy_gpio_write(&pin_dc_, 1);
 131:../../libDaisy//src/dev/oled_ssd130x.h ****         spi_.BlockingTransmit(buff, size);
 132:../../libDaisy//src/dev/oled_ssd130x.h ****     };
 133:../../libDaisy//src/dev/oled_ssd130x.h **** 
 134:../../libDaisy//src/dev/oled_ssd130x.h ****   private:
 135:../../libDaisy//src/dev/oled_ssd130x.h ****     SpiHandle spi_;
 136:../../libDaisy//src/dev/oled_ssd130x.h ****     dsy_gpio  pin_reset_;
 137:../../libDaisy//src/dev/oled_ssd130x.h ****     dsy_gpio  pin_dc_;
 138:../../libDaisy//src/dev/oled_ssd130x.h **** };
 139:../../libDaisy//src/dev/oled_ssd130x.h **** 
 140:../../libDaisy//src/dev/oled_ssd130x.h **** /**
 141:../../libDaisy//src/dev/oled_ssd130x.h ****  * Soft SPI Transport for SSD1306 / SSD1309 OLED display devices
 142:../../libDaisy//src/dev/oled_ssd130x.h ****  */
 143:../../libDaisy//src/dev/oled_ssd130x.h **** class SSD130x4WireSoftSpiTransport
 144:../../libDaisy//src/dev/oled_ssd130x.h **** {
 145:../../libDaisy//src/dev/oled_ssd130x.h ****   public:
 146:../../libDaisy//src/dev/oled_ssd130x.h ****     struct Config
 147:../../libDaisy//src/dev/oled_ssd130x.h ****     {
 148:../../libDaisy//src/dev/oled_ssd130x.h ****         Config()
 149:../../libDaisy//src/dev/oled_ssd130x.h ****         {
 150:../../libDaisy//src/dev/oled_ssd130x.h ****             // Initialize using defaults
 151:../../libDaisy//src/dev/oled_ssd130x.h ****             Defaults();
 152:../../libDaisy//src/dev/oled_ssd130x.h ****         }
 153:../../libDaisy//src/dev/oled_ssd130x.h ****         struct
 154:../../libDaisy//src/dev/oled_ssd130x.h ****         {
ARM GAS  C:\Users\halcyon\AppData\Local\Temp\ccgaMkHw.s 			page 28


 155:../../libDaisy//src/dev/oled_ssd130x.h ****             uint32_t     sclk_delay;
 156:../../libDaisy//src/dev/oled_ssd130x.h ****             dsy_gpio_pin sclk;
 157:../../libDaisy//src/dev/oled_ssd130x.h ****             dsy_gpio_pin mosi;
 158:../../libDaisy//src/dev/oled_ssd130x.h ****             dsy_gpio_pin dc;
 159:../../libDaisy//src/dev/oled_ssd130x.h ****             dsy_gpio_pin reset;
 160:../../libDaisy//src/dev/oled_ssd130x.h ****         } pin_config;
 161:../../libDaisy//src/dev/oled_ssd130x.h ****         void Defaults()
 162:../../libDaisy//src/dev/oled_ssd130x.h ****         {
 163:../../libDaisy//src/dev/oled_ssd130x.h ****             pin_config.sclk_delay = 0; // fast as possible?!
 164:../../libDaisy//src/dev/oled_ssd130x.h ****             // SPI peripheral config
 165:../../libDaisy//src/dev/oled_ssd130x.h ****             pin_config.sclk = {DSY_GPIOD, 3}; /**< D10 - SPI2 SCK  */
 166:../../libDaisy//src/dev/oled_ssd130x.h ****             pin_config.mosi = {DSY_GPIOC, 3}; /**< D9  - SPI2 MOSI */
 167:../../libDaisy//src/dev/oled_ssd130x.h ****             // SSD130x control pin config
 168:../../libDaisy//src/dev/oled_ssd130x.h ****             pin_config.dc    = {DSY_GPIOC, 11}; //D2
 169:../../libDaisy//src/dev/oled_ssd130x.h ****             pin_config.reset = {DSY_GPIOC, 10}; //D3
 170:../../libDaisy//src/dev/oled_ssd130x.h ****         }
 171:../../libDaisy//src/dev/oled_ssd130x.h ****     };
 172:../../libDaisy//src/dev/oled_ssd130x.h ****     void Init(const Config& config)
 173:../../libDaisy//src/dev/oled_ssd130x.h ****     {
 174:../../libDaisy//src/dev/oled_ssd130x.h ****         // Initialize both GPIO
 175:../../libDaisy//src/dev/oled_ssd130x.h ****         pin_sclk_.mode = DSY_GPIO_MODE_OUTPUT_PP;
 176:../../libDaisy//src/dev/oled_ssd130x.h ****         pin_sclk_.pin  = config.pin_config.sclk;
 177:../../libDaisy//src/dev/oled_ssd130x.h ****         dsy_gpio_init(&pin_sclk_);
 178:../../libDaisy//src/dev/oled_ssd130x.h ****         dsy_gpio_write(&pin_sclk_, 1); //ClockPolarity::LOW
 179:../../libDaisy//src/dev/oled_ssd130x.h ****         clk_delay      = config.pin_config.sclk_delay;
 180:../../libDaisy//src/dev/oled_ssd130x.h ****         pin_mosi_.mode = DSY_GPIO_MODE_OUTPUT_PP;
 181:../../libDaisy//src/dev/oled_ssd130x.h ****         pin_mosi_.pin  = config.pin_config.mosi;
 182:../../libDaisy//src/dev/oled_ssd130x.h ****         dsy_gpio_init(&pin_mosi_);
 183:../../libDaisy//src/dev/oled_ssd130x.h ****         dsy_gpio_write(&pin_mosi_, 0);
 184:../../libDaisy//src/dev/oled_ssd130x.h **** 
 185:../../libDaisy//src/dev/oled_ssd130x.h ****         pin_dc_.mode = DSY_GPIO_MODE_OUTPUT_PP;
 186:../../libDaisy//src/dev/oled_ssd130x.h ****         pin_dc_.pin  = config.pin_config.dc;
 187:../../libDaisy//src/dev/oled_ssd130x.h ****         dsy_gpio_init(&pin_dc_);
 188:../../libDaisy//src/dev/oled_ssd130x.h ****         pin_reset_.mode = DSY_GPIO_MODE_OUTPUT_PP;
 189:../../libDaisy//src/dev/oled_ssd130x.h ****         pin_reset_.pin  = config.pin_config.reset;
 190:../../libDaisy//src/dev/oled_ssd130x.h ****         dsy_gpio_init(&pin_reset_);
 191:../../libDaisy//src/dev/oled_ssd130x.h **** 
 192:../../libDaisy//src/dev/oled_ssd130x.h ****         // Reset and Configure OLED.
 193:../../libDaisy//src/dev/oled_ssd130x.h ****         dsy_gpio_write(&pin_reset_, 0);
 194:../../libDaisy//src/dev/oled_ssd130x.h ****         System::Delay(10);
 195:../../libDaisy//src/dev/oled_ssd130x.h ****         dsy_gpio_write(&pin_reset_, 1);
 196:../../libDaisy//src/dev/oled_ssd130x.h ****         System::Delay(10);
 197:../../libDaisy//src/dev/oled_ssd130x.h ****     };
 198:../../libDaisy//src/dev/oled_ssd130x.h ****     void SendCommand(uint8_t cmd)
 199:../../libDaisy//src/dev/oled_ssd130x.h ****     {
 200:../../libDaisy//src/dev/oled_ssd130x.h ****         dsy_gpio_write(&pin_dc_, 0);
 201:../../libDaisy//src/dev/oled_ssd130x.h ****         SoftSpiTransmit(cmd);
 202:../../libDaisy//src/dev/oled_ssd130x.h ****     };
 203:../../libDaisy//src/dev/oled_ssd130x.h **** 
 204:../../libDaisy//src/dev/oled_ssd130x.h ****     void SendData(uint8_t* buff, size_t size)
 205:../../libDaisy//src/dev/oled_ssd130x.h ****     {
 206:../../libDaisy//src/dev/oled_ssd130x.h ****         dsy_gpio_write(&pin_dc_, 1);
 207:../../libDaisy//src/dev/oled_ssd130x.h ****         for(size_t i = 0; i < size; i++)
 208:../../libDaisy//src/dev/oled_ssd130x.h ****             SoftSpiTransmit(buff[i]);
 209:../../libDaisy//src/dev/oled_ssd130x.h ****     };
 210:../../libDaisy//src/dev/oled_ssd130x.h **** 
 211:../../libDaisy//src/dev/oled_ssd130x.h ****   private:
ARM GAS  C:\Users\halcyon\AppData\Local\Temp\ccgaMkHw.s 			page 29


 212:../../libDaisy//src/dev/oled_ssd130x.h ****     void SoftSpiTransmit(uint8_t val)
 213:../../libDaisy//src/dev/oled_ssd130x.h ****     {
 214:../../libDaisy//src/dev/oled_ssd130x.h ****         // bit flip
 215:../../libDaisy//src/dev/oled_ssd130x.h ****         val = ((val & 0x01) << 7) | ((val & 0x02) << 5) | ((val & 0x04) << 3)
 216:../../libDaisy//src/dev/oled_ssd130x.h ****               | ((val & 0x08) << 1) | ((val & 0x10) >> 1) | ((val & 0x20) >> 3)
 217:../../libDaisy//src/dev/oled_ssd130x.h ****               | ((val & 0x40) >> 5) | ((val & 0x80) >> 7);
 218:../../libDaisy//src/dev/oled_ssd130x.h **** 
 219:../../libDaisy//src/dev/oled_ssd130x.h ****         for(uint8_t bit = 0u; bit < 8u; bit++)
 220:../../libDaisy//src/dev/oled_ssd130x.h ****         {
 221:../../libDaisy//src/dev/oled_ssd130x.h ****             dsy_gpio_write(&pin_mosi_, ((val & (1 << bit)) ? 1 : 0));
 222:../../libDaisy//src/dev/oled_ssd130x.h **** 
 223:../../libDaisy//src/dev/oled_ssd130x.h ****             System::DelayTicks(clk_delay);
 224:../../libDaisy//src/dev/oled_ssd130x.h **** 
 225:../../libDaisy//src/dev/oled_ssd130x.h ****             dsy_gpio_toggle(&pin_sclk_);
 226:../../libDaisy//src/dev/oled_ssd130x.h **** 
 227:../../libDaisy//src/dev/oled_ssd130x.h ****             System::DelayTicks(clk_delay);
 228:../../libDaisy//src/dev/oled_ssd130x.h **** 
 229:../../libDaisy//src/dev/oled_ssd130x.h ****             dsy_gpio_toggle(&pin_sclk_);
 230:../../libDaisy//src/dev/oled_ssd130x.h ****         }
 231:../../libDaisy//src/dev/oled_ssd130x.h ****     }
 232:../../libDaisy//src/dev/oled_ssd130x.h **** 
 233:../../libDaisy//src/dev/oled_ssd130x.h ****     uint32_t clk_delay;
 234:../../libDaisy//src/dev/oled_ssd130x.h ****     dsy_gpio pin_sclk_;
 235:../../libDaisy//src/dev/oled_ssd130x.h ****     dsy_gpio pin_mosi_;
 236:../../libDaisy//src/dev/oled_ssd130x.h ****     dsy_gpio pin_reset_;
 237:../../libDaisy//src/dev/oled_ssd130x.h ****     dsy_gpio pin_dc_;
 238:../../libDaisy//src/dev/oled_ssd130x.h **** };
 239:../../libDaisy//src/dev/oled_ssd130x.h **** 
 240:../../libDaisy//src/dev/oled_ssd130x.h **** 
 241:../../libDaisy//src/dev/oled_ssd130x.h **** /**
 242:../../libDaisy//src/dev/oled_ssd130x.h ****  * A driver implementation for the SSD1306/SSD1309
 243:../../libDaisy//src/dev/oled_ssd130x.h ****  */
 244:../../libDaisy//src/dev/oled_ssd130x.h **** template <size_t width, size_t height, typename Transport>
 245:../../libDaisy//src/dev/oled_ssd130x.h **** class SSD130xDriver
 246:../../libDaisy//src/dev/oled_ssd130x.h **** {
 247:../../libDaisy//src/dev/oled_ssd130x.h ****   public:
 248:../../libDaisy//src/dev/oled_ssd130x.h ****     struct Config
 249:../../libDaisy//src/dev/oled_ssd130x.h ****     {
 250:../../libDaisy//src/dev/oled_ssd130x.h ****         typename Transport::Config transport_config;
 251:../../libDaisy//src/dev/oled_ssd130x.h ****     };
 252:../../libDaisy//src/dev/oled_ssd130x.h **** 
 253:../../libDaisy//src/dev/oled_ssd130x.h ****     void Init(Config config)
 254:../../libDaisy//src/dev/oled_ssd130x.h ****     {
 255:../../libDaisy//src/dev/oled_ssd130x.h ****         transport_.Init(config.transport_config);
 256:../../libDaisy//src/dev/oled_ssd130x.h **** 
 257:../../libDaisy//src/dev/oled_ssd130x.h ****         // Init routine...
 258:../../libDaisy//src/dev/oled_ssd130x.h **** 
 259:../../libDaisy//src/dev/oled_ssd130x.h ****         // Display Off
 260:../../libDaisy//src/dev/oled_ssd130x.h ****         transport_.SendCommand(0xaE);
 261:../../libDaisy//src/dev/oled_ssd130x.h ****         // Dimension dependent commands...
 262:../../libDaisy//src/dev/oled_ssd130x.h ****         switch(height)
 263:../../libDaisy//src/dev/oled_ssd130x.h ****         {
 264:../../libDaisy//src/dev/oled_ssd130x.h ****             case 16:
 265:../../libDaisy//src/dev/oled_ssd130x.h ****                 // Display Clock Divide Ratio
 266:../../libDaisy//src/dev/oled_ssd130x.h ****                 transport_.SendCommand(0xD5);
 267:../../libDaisy//src/dev/oled_ssd130x.h ****                 transport_.SendCommand(0x60);
 268:../../libDaisy//src/dev/oled_ssd130x.h ****                 // Multiplex Ratio
ARM GAS  C:\Users\halcyon\AppData\Local\Temp\ccgaMkHw.s 			page 30


 269:../../libDaisy//src/dev/oled_ssd130x.h ****                 transport_.SendCommand(0xA8);
 270:../../libDaisy//src/dev/oled_ssd130x.h ****                 transport_.SendCommand(0x0F);
 271:../../libDaisy//src/dev/oled_ssd130x.h ****                 // COM Pins
 272:../../libDaisy//src/dev/oled_ssd130x.h ****                 transport_.SendCommand(0xDA);
 273:../../libDaisy//src/dev/oled_ssd130x.h ****                 transport_.SendCommand(0x02);
 274:../../libDaisy//src/dev/oled_ssd130x.h ****                 break;
 275:../../libDaisy//src/dev/oled_ssd130x.h ****             case 32:
 276:../../libDaisy//src/dev/oled_ssd130x.h ****                 // Display Clock Divide Ratio
 277:../../libDaisy//src/dev/oled_ssd130x.h ****                 transport_.SendCommand(0xD5);
 278:../../libDaisy//src/dev/oled_ssd130x.h ****                 transport_.SendCommand(0x80);
 279:../../libDaisy//src/dev/oled_ssd130x.h ****                 // Multiplex Ratio
 280:../../libDaisy//src/dev/oled_ssd130x.h ****                 transport_.SendCommand(0xA8);
 281:../../libDaisy//src/dev/oled_ssd130x.h ****                 transport_.SendCommand(0x1F);
 282:../../libDaisy//src/dev/oled_ssd130x.h ****                 // COM Pins
 283:../../libDaisy//src/dev/oled_ssd130x.h ****                 transport_.SendCommand(0xDA);
 284:../../libDaisy//src/dev/oled_ssd130x.h ****                 if(width == 64)
 285:../../libDaisy//src/dev/oled_ssd130x.h ****                 {
 286:../../libDaisy//src/dev/oled_ssd130x.h ****                     transport_.SendCommand(0x12);
 287:../../libDaisy//src/dev/oled_ssd130x.h ****                 }
 288:../../libDaisy//src/dev/oled_ssd130x.h ****                 else
 289:../../libDaisy//src/dev/oled_ssd130x.h ****                 {
 290:../../libDaisy//src/dev/oled_ssd130x.h ****                     transport_.SendCommand(0x02);
 291:../../libDaisy//src/dev/oled_ssd130x.h ****                 }
 292:../../libDaisy//src/dev/oled_ssd130x.h **** 
 293:../../libDaisy//src/dev/oled_ssd130x.h ****                 break;
 294:../../libDaisy//src/dev/oled_ssd130x.h ****             case 48:
 295:../../libDaisy//src/dev/oled_ssd130x.h ****                 // Display Clock Divide Ratio
 296:../../libDaisy//src/dev/oled_ssd130x.h ****                 transport_.SendCommand(0xD5);
 297:../../libDaisy//src/dev/oled_ssd130x.h ****                 transport_.SendCommand(0x80);
 298:../../libDaisy//src/dev/oled_ssd130x.h ****                 // Multiplex Ratio
 299:../../libDaisy//src/dev/oled_ssd130x.h ****                 transport_.SendCommand(0xA8);
 300:../../libDaisy//src/dev/oled_ssd130x.h ****                 transport_.SendCommand(0x2F);
 301:../../libDaisy//src/dev/oled_ssd130x.h ****                 // COM Pins
 302:../../libDaisy//src/dev/oled_ssd130x.h ****                 transport_.SendCommand(0xDA);
 303:../../libDaisy//src/dev/oled_ssd130x.h ****                 transport_.SendCommand(0x12);
 304:../../libDaisy//src/dev/oled_ssd130x.h ****                 break;
 305:../../libDaisy//src/dev/oled_ssd130x.h ****             default: // 128
 306:../../libDaisy//src/dev/oled_ssd130x.h ****                 // Display Clock Divide Ratio
 307:../../libDaisy//src/dev/oled_ssd130x.h ****                 transport_.SendCommand(0xD5);
 308:../../libDaisy//src/dev/oled_ssd130x.h ****                 transport_.SendCommand(0x80);
 309:../../libDaisy//src/dev/oled_ssd130x.h ****                 // Multiplex Ratio
 310:../../libDaisy//src/dev/oled_ssd130x.h ****                 transport_.SendCommand(0xA8);
 311:../../libDaisy//src/dev/oled_ssd130x.h ****                 transport_.SendCommand(0x3F);
 312:../../libDaisy//src/dev/oled_ssd130x.h ****                 // COM Pins
 313:../../libDaisy//src/dev/oled_ssd130x.h ****                 transport_.SendCommand(0xDA);
 314:../../libDaisy//src/dev/oled_ssd130x.h ****                 transport_.SendCommand(0x12);
 315:../../libDaisy//src/dev/oled_ssd130x.h ****                 break;
 316:../../libDaisy//src/dev/oled_ssd130x.h ****         }
 317:../../libDaisy//src/dev/oled_ssd130x.h **** 
 318:../../libDaisy//src/dev/oled_ssd130x.h ****         // Display Offset
 319:../../libDaisy//src/dev/oled_ssd130x.h ****         transport_.SendCommand(0xD3);
 320:../../libDaisy//src/dev/oled_ssd130x.h ****         transport_.SendCommand(0x00);
 321:../../libDaisy//src/dev/oled_ssd130x.h ****         // Start Line Address
 322:../../libDaisy//src/dev/oled_ssd130x.h ****         transport_.SendCommand(0x40);
 323:../../libDaisy//src/dev/oled_ssd130x.h ****         // Normal Display
 324:../../libDaisy//src/dev/oled_ssd130x.h ****         transport_.SendCommand(0xA6);
 325:../../libDaisy//src/dev/oled_ssd130x.h ****         // All On Resume
ARM GAS  C:\Users\halcyon\AppData\Local\Temp\ccgaMkHw.s 			page 31


 326:../../libDaisy//src/dev/oled_ssd130x.h ****         transport_.SendCommand(0xA4);
 327:../../libDaisy//src/dev/oled_ssd130x.h ****         // Charge Pump
 328:../../libDaisy//src/dev/oled_ssd130x.h ****         transport_.SendCommand(0x8D);
 329:../../libDaisy//src/dev/oled_ssd130x.h ****         transport_.SendCommand(0x14);
 330:../../libDaisy//src/dev/oled_ssd130x.h ****         // Set Segment Remap
 331:../../libDaisy//src/dev/oled_ssd130x.h ****         transport_.SendCommand(0xA1);
 332:../../libDaisy//src/dev/oled_ssd130x.h ****         // COM Output Scan Direction
 333:../../libDaisy//src/dev/oled_ssd130x.h ****         transport_.SendCommand(0xC8);
 334:../../libDaisy//src/dev/oled_ssd130x.h ****         // Contrast Control
 335:../../libDaisy//src/dev/oled_ssd130x.h ****         transport_.SendCommand(0x81);
 336:../../libDaisy//src/dev/oled_ssd130x.h ****         transport_.SendCommand(0x8F);
 337:../../libDaisy//src/dev/oled_ssd130x.h ****         // Pre Charge
 338:../../libDaisy//src/dev/oled_ssd130x.h ****         transport_.SendCommand(0xD9);
 339:../../libDaisy//src/dev/oled_ssd130x.h ****         transport_.SendCommand(0x25);
 340:../../libDaisy//src/dev/oled_ssd130x.h ****         // VCOM Detect
 341:../../libDaisy//src/dev/oled_ssd130x.h ****         transport_.SendCommand(0xDB);
 342:../../libDaisy//src/dev/oled_ssd130x.h ****         transport_.SendCommand(0x34);
 343:../../libDaisy//src/dev/oled_ssd130x.h **** 
 344:../../libDaisy//src/dev/oled_ssd130x.h **** 
 345:../../libDaisy//src/dev/oled_ssd130x.h ****         // Display On
 346:../../libDaisy//src/dev/oled_ssd130x.h ****         transport_.SendCommand(0xAF); //--turn on oled panel
 347:../../libDaisy//src/dev/oled_ssd130x.h ****     };
 348:../../libDaisy//src/dev/oled_ssd130x.h **** 
 349:../../libDaisy//src/dev/oled_ssd130x.h ****     size_t Width() const { return width; };
 350:../../libDaisy//src/dev/oled_ssd130x.h ****     size_t Height() const { return height; };
 351:../../libDaisy//src/dev/oled_ssd130x.h **** 
 352:../../libDaisy//src/dev/oled_ssd130x.h ****     void DrawPixel(uint_fast8_t x, uint_fast8_t y, bool on)
 353:../../libDaisy//src/dev/oled_ssd130x.h ****     {
 354:../../libDaisy//src/dev/oled_ssd130x.h ****         if(x >= width || y >= height)
 355:../../libDaisy//src/dev/oled_ssd130x.h ****             return;
 356:../../libDaisy//src/dev/oled_ssd130x.h ****         if(on)
 357:../../libDaisy//src/dev/oled_ssd130x.h ****             buffer_[x + (y / 8) * width] |= (1 << (y % 8));
 358:../../libDaisy//src/dev/oled_ssd130x.h ****         else
 359:../../libDaisy//src/dev/oled_ssd130x.h ****             buffer_[x + (y / 8) * width] &= ~(1 << (y % 8));
 360:../../libDaisy//src/dev/oled_ssd130x.h ****     }
 361:../../libDaisy//src/dev/oled_ssd130x.h **** 
 362:../../libDaisy//src/dev/oled_ssd130x.h ****     void Fill(bool on)
 245              		.loc 18 362 10 view .LVU51
 246              	.LBB635:
 363:../../libDaisy//src/dev/oled_ssd130x.h ****     {
 364:../../libDaisy//src/dev/oled_ssd130x.h ****         for(size_t i = 0; i < sizeof(buffer_); i++)
 247              		.loc 18 364 29 view .LVU52
 365:../../libDaisy//src/dev/oled_ssd130x.h ****         {
 366:../../libDaisy//src/dev/oled_ssd130x.h ****             buffer_[i] = on ? 0xff : 0x00;
 248              		.loc 18 366 24 is_stmt 0 view .LVU53
 249 0000 4942     		rsbs	r1, r1, #0
 250              	.LVL4:
 251              		.loc 18 366 24 view .LVU54
 252 0002 4FF48062 		mov	r2, #1024
 253 0006 1430     		adds	r0, r0, #20
 254              	.LVL5:
 255              		.loc 18 366 24 view .LVU55
 256 0008 C9B2     		uxtb	r1, r1
 257 000a FFF7FEBF 		b	memset
 258              	.LVL6:
 259              		.loc 18 366 24 view .LVU56
 260              	.LBE635:
ARM GAS  C:\Users\halcyon\AppData\Local\Temp\ccgaMkHw.s 			page 32


 261              	.LBE634:
 262              		.cfi_endproc
 263              	.LFE3483:
 265 000e 00BF     		.section	.text._ZN5daisy11OledDisplayINS_13SSD130xDriverILj128ELj64ENS_24SSD130x4WireSpiTransportE
 266              		.align	1
 267              		.p2align 2,,3
 268              		.weak	_ZN5daisy11OledDisplayINS_13SSD130xDriverILj128ELj64ENS_24SSD130x4WireSpiTransportEEEED2Ev
 269              		.syntax unified
 270              		.thumb
 271              		.thumb_func
 272              		.fpu fpv5-d16
 274              	_ZN5daisy11OledDisplayINS_13SSD130xDriverILj128ELj64ENS_24SSD130x4WireSpiTransportEEEED2Ev:
 275              	.LVL7:
 276              	.LFB3746:
  18:../../libDaisy//src/hid/disp/oled_display.h **** 
 277              		.loc 17 18 13 is_stmt 1 view -0
 278              		.cfi_startproc
 279              		@ args = 0, pretend = 0, frame = 0
 280              		@ frame_needed = 0, uses_anonymous_args = 0
 281              		@ link register save eliminated.
 282              	.LBB636:
 283              	.LBI636:
 284              		.file 19 "../../libDaisy//src/hid/disp/display.h"
   1:../../libDaisy//src/hid/disp/display.h **** #pragma once
   2:../../libDaisy//src/hid/disp/display.h **** #ifndef DSY_DISPLAY_H
   3:../../libDaisy//src/hid/disp/display.h **** #define DSY_DISPLAY_H /**< Macro */
   4:../../libDaisy//src/hid/disp/display.h **** #include <cmath>
   5:../../libDaisy//src/hid/disp/display.h **** #include "util/oled_fonts.h"
   6:../../libDaisy//src/hid/disp/display.h **** #include "daisy_core.h"
   7:../../libDaisy//src/hid/disp/display.h **** #include "graphics_common.h"
   8:../../libDaisy//src/hid/disp/display.h **** 
   9:../../libDaisy//src/hid/disp/display.h **** #ifndef deg2rad
  10:../../libDaisy//src/hid/disp/display.h **** #define deg2rad(deg) ((deg)*3.141592 / 180.0)
  11:../../libDaisy//src/hid/disp/display.h **** #endif
  12:../../libDaisy//src/hid/disp/display.h **** 
  13:../../libDaisy//src/hid/disp/display.h **** namespace daisy
  14:../../libDaisy//src/hid/disp/display.h **** {
  15:../../libDaisy//src/hid/disp/display.h **** /** 
  16:../../libDaisy//src/hid/disp/display.h ****  * This interface is used as a base class for all types of 1bit-per-pixel
  17:../../libDaisy//src/hid/disp/display.h ****  * graphics displays.
  18:../../libDaisy//src/hid/disp/display.h **** */
  19:../../libDaisy//src/hid/disp/display.h **** class OneBitGraphicsDisplay
  20:../../libDaisy//src/hid/disp/display.h **** {
  21:../../libDaisy//src/hid/disp/display.h ****   public:
  22:../../libDaisy//src/hid/disp/display.h ****     OneBitGraphicsDisplay() {}
  23:../../libDaisy//src/hid/disp/display.h ****     virtual ~OneBitGraphicsDisplay() {}
  24:../../libDaisy//src/hid/disp/display.h **** 
  25:../../libDaisy//src/hid/disp/display.h ****     virtual uint16_t Height() const = 0;
  26:../../libDaisy//src/hid/disp/display.h ****     virtual uint16_t Width() const  = 0;
  27:../../libDaisy//src/hid/disp/display.h **** 
  28:../../libDaisy//src/hid/disp/display.h ****     Rectangle GetBounds() const
  29:../../libDaisy//src/hid/disp/display.h ****     {
  30:../../libDaisy//src/hid/disp/display.h ****         return Rectangle(int16_t(Width()), int16_t(Height()));
  31:../../libDaisy//src/hid/disp/display.h ****     }
  32:../../libDaisy//src/hid/disp/display.h **** 
  33:../../libDaisy//src/hid/disp/display.h **** 
  34:../../libDaisy//src/hid/disp/display.h ****     size_t CurrentX() { return currentX_; };
ARM GAS  C:\Users\halcyon\AppData\Local\Temp\ccgaMkHw.s 			page 33


  35:../../libDaisy//src/hid/disp/display.h ****     size_t CurrentY() { return currentY_; };
  36:../../libDaisy//src/hid/disp/display.h **** 
  37:../../libDaisy//src/hid/disp/display.h ****     /** 
  38:../../libDaisy//src/hid/disp/display.h ****     Fills the entire display with either on/off.
  39:../../libDaisy//src/hid/disp/display.h ****     \param on Sets on or off.
  40:../../libDaisy//src/hid/disp/display.h ****     */
  41:../../libDaisy//src/hid/disp/display.h ****     virtual void Fill(bool on) = 0;
  42:../../libDaisy//src/hid/disp/display.h **** 
  43:../../libDaisy//src/hid/disp/display.h ****     /**
  44:../../libDaisy//src/hid/disp/display.h ****     Sets the pixel at the specified coordinate to be on/off.
  45:../../libDaisy//src/hid/disp/display.h ****     \param x   x Coordinate
  46:../../libDaisy//src/hid/disp/display.h ****     \param y   y coordinate
  47:../../libDaisy//src/hid/disp/display.h ****     \param on  on or off
  48:../../libDaisy//src/hid/disp/display.h ****     */
  49:../../libDaisy//src/hid/disp/display.h ****     virtual void DrawPixel(uint_fast8_t x, uint_fast8_t y, bool on) = 0;
  50:../../libDaisy//src/hid/disp/display.h **** 
  51:../../libDaisy//src/hid/disp/display.h ****     /**
  52:../../libDaisy//src/hid/disp/display.h ****     Draws a line from (x1, y1) to (y1, y2)
  53:../../libDaisy//src/hid/disp/display.h ****     \param x1  x Coordinate of the starting point
  54:../../libDaisy//src/hid/disp/display.h ****     \param y1  y Coordinate of the starting point
  55:../../libDaisy//src/hid/disp/display.h ****     \param x2  x Coordinate of the ending point
  56:../../libDaisy//src/hid/disp/display.h ****     \param y2  y Coordinate of the ending point
  57:../../libDaisy//src/hid/disp/display.h ****     \param on  on or off
  58:../../libDaisy//src/hid/disp/display.h ****     */
  59:../../libDaisy//src/hid/disp/display.h ****     virtual void DrawLine(uint_fast8_t x1,
  60:../../libDaisy//src/hid/disp/display.h ****                           uint_fast8_t y1,
  61:../../libDaisy//src/hid/disp/display.h ****                           uint_fast8_t x2,
  62:../../libDaisy//src/hid/disp/display.h ****                           uint_fast8_t y2,
  63:../../libDaisy//src/hid/disp/display.h ****                           bool         on)
  64:../../libDaisy//src/hid/disp/display.h ****         = 0;
  65:../../libDaisy//src/hid/disp/display.h **** 
  66:../../libDaisy//src/hid/disp/display.h ****     /**
  67:../../libDaisy//src/hid/disp/display.h ****     Draws a rectangle based on two coordinates.
  68:../../libDaisy//src/hid/disp/display.h ****     \param x1 x Coordinate of the first point
  69:../../libDaisy//src/hid/disp/display.h ****     \param y1 y Coordinate of the first point
  70:../../libDaisy//src/hid/disp/display.h ****     \param x2 x Coordinate of the second point
  71:../../libDaisy//src/hid/disp/display.h ****     \param y2 y Coordinate of the second point
  72:../../libDaisy//src/hid/disp/display.h ****     \param on on or off
  73:../../libDaisy//src/hid/disp/display.h ****     \param fill fill the rectangle or draw only the outline
  74:../../libDaisy//src/hid/disp/display.h ****     */
  75:../../libDaisy//src/hid/disp/display.h ****     virtual void DrawRect(uint_fast8_t x1,
  76:../../libDaisy//src/hid/disp/display.h ****                           uint_fast8_t y1,
  77:../../libDaisy//src/hid/disp/display.h ****                           uint_fast8_t x2,
  78:../../libDaisy//src/hid/disp/display.h ****                           uint_fast8_t y2,
  79:../../libDaisy//src/hid/disp/display.h ****                           bool         on,
  80:../../libDaisy//src/hid/disp/display.h ****                           bool         fill = false)
  81:../../libDaisy//src/hid/disp/display.h ****         = 0;
  82:../../libDaisy//src/hid/disp/display.h **** 
  83:../../libDaisy//src/hid/disp/display.h ****     /**
  84:../../libDaisy//src/hid/disp/display.h ****     Draws a rectangle.
  85:../../libDaisy//src/hid/disp/display.h ****     \param rect the rectangle
  86:../../libDaisy//src/hid/disp/display.h ****     \param on   on or off
  87:../../libDaisy//src/hid/disp/display.h ****     \param fill fill the rectangle or draw only the outline
  88:../../libDaisy//src/hid/disp/display.h ****     */
  89:../../libDaisy//src/hid/disp/display.h ****     void DrawRect(const Rectangle& rect, bool on, bool fill = false)
  90:../../libDaisy//src/hid/disp/display.h ****     {
  91:../../libDaisy//src/hid/disp/display.h ****         DrawRect(rect.GetX(),
ARM GAS  C:\Users\halcyon\AppData\Local\Temp\ccgaMkHw.s 			page 34


  92:../../libDaisy//src/hid/disp/display.h ****                  rect.GetY(),
  93:../../libDaisy//src/hid/disp/display.h ****                  rect.GetRight(),
  94:../../libDaisy//src/hid/disp/display.h ****                  rect.GetBottom(),
  95:../../libDaisy//src/hid/disp/display.h ****                  on,
  96:../../libDaisy//src/hid/disp/display.h ****                  fill);
  97:../../libDaisy//src/hid/disp/display.h ****     }
  98:../../libDaisy//src/hid/disp/display.h **** 
  99:../../libDaisy//src/hid/disp/display.h ****     /**
 100:../../libDaisy//src/hid/disp/display.h ****     Draws an arc around the specified coordinate
 101:../../libDaisy//src/hid/disp/display.h ****     \param x           x Coordinate of the center of the arc
 102:../../libDaisy//src/hid/disp/display.h ****     \param y           y Coordinate of the center of the arc
 103:../../libDaisy//src/hid/disp/display.h ****     \param radius      radius of the arc
 104:../../libDaisy//src/hid/disp/display.h ****     \param start_angle angle where to start the arc
 105:../../libDaisy//src/hid/disp/display.h ****     \param sweep       total angle of the arc
 106:../../libDaisy//src/hid/disp/display.h ****     \param on  on or off
 107:../../libDaisy//src/hid/disp/display.h ****     */
 108:../../libDaisy//src/hid/disp/display.h ****     virtual void DrawArc(uint_fast8_t x,
 109:../../libDaisy//src/hid/disp/display.h ****                          uint_fast8_t y,
 110:../../libDaisy//src/hid/disp/display.h ****                          uint_fast8_t radius,
 111:../../libDaisy//src/hid/disp/display.h ****                          int_fast16_t start_angle,
 112:../../libDaisy//src/hid/disp/display.h ****                          int_fast16_t sweep,
 113:../../libDaisy//src/hid/disp/display.h ****                          bool         on)
 114:../../libDaisy//src/hid/disp/display.h ****         = 0;
 115:../../libDaisy//src/hid/disp/display.h **** 
 116:../../libDaisy//src/hid/disp/display.h ****     /**
 117:../../libDaisy//src/hid/disp/display.h ****     Draws a circle around the specified coordinate
 118:../../libDaisy//src/hid/disp/display.h ****     \param x           x Coordinate of the center of the circle
 119:../../libDaisy//src/hid/disp/display.h ****     \param y           y Coordinate of the center of the circle
 120:../../libDaisy//src/hid/disp/display.h ****     \param radius      radius of the circle
 121:../../libDaisy//src/hid/disp/display.h ****     \param on  on or off
 122:../../libDaisy//src/hid/disp/display.h ****     */
 123:../../libDaisy//src/hid/disp/display.h ****     void
 124:../../libDaisy//src/hid/disp/display.h ****     DrawCircle(uint_fast8_t x, uint_fast8_t y, uint_fast8_t radius, bool on)
 125:../../libDaisy//src/hid/disp/display.h ****     {
 126:../../libDaisy//src/hid/disp/display.h ****         DrawArc(x, y, radius, 0, 360, on);
 127:../../libDaisy//src/hid/disp/display.h ****     };
 128:../../libDaisy//src/hid/disp/display.h **** 
 129:../../libDaisy//src/hid/disp/display.h ****     /** 
 130:../../libDaisy//src/hid/disp/display.h ****     Writes the character with the specific FontDef
 131:../../libDaisy//src/hid/disp/display.h ****     to the display buffer at the current Cursor position.
 132:../../libDaisy//src/hid/disp/display.h ****     \param ch character to be written
 133:../../libDaisy//src/hid/disp/display.h ****     \param font font to be written in
 134:../../libDaisy//src/hid/disp/display.h ****     \param on    on or off
 135:../../libDaisy//src/hid/disp/display.h ****     \return &
 136:../../libDaisy//src/hid/disp/display.h ****     */
 137:../../libDaisy//src/hid/disp/display.h ****     virtual char WriteChar(char ch, FontDef font, bool on) = 0;
 138:../../libDaisy//src/hid/disp/display.h **** 
 139:../../libDaisy//src/hid/disp/display.h ****     /** 
 140:../../libDaisy//src/hid/disp/display.h ****     Similar to WriteChar, except it will handle an entire String.
 141:../../libDaisy//src/hid/disp/display.h ****     Wrapping does not happen automatically, so the width
 142:../../libDaisy//src/hid/disp/display.h ****     of the string must be kept within the dimensions of the screen.
 143:../../libDaisy//src/hid/disp/display.h ****     \param str string to be written
 144:../../libDaisy//src/hid/disp/display.h ****     \param font font to use
 145:../../libDaisy//src/hid/disp/display.h ****     \param on  on or off
 146:../../libDaisy//src/hid/disp/display.h ****     \return &
 147:../../libDaisy//src/hid/disp/display.h ****     */
 148:../../libDaisy//src/hid/disp/display.h ****     virtual char WriteString(const char* str, FontDef font, bool on) = 0;
ARM GAS  C:\Users\halcyon\AppData\Local\Temp\ccgaMkHw.s 			page 35


 149:../../libDaisy//src/hid/disp/display.h **** 
 150:../../libDaisy//src/hid/disp/display.h ****     /** 
 151:../../libDaisy//src/hid/disp/display.h ****     Similar to WriteString but justified within a bounding box.
 152:../../libDaisy//src/hid/disp/display.h ****     \param str          string to be written
 153:../../libDaisy//src/hid/disp/display.h ****     \param font         font to use
 154:../../libDaisy//src/hid/disp/display.h ****     \param boundingBox  the bounding box to draw the text in
 155:../../libDaisy//src/hid/disp/display.h ****     \param alignment    the alignment to use
 156:../../libDaisy//src/hid/disp/display.h ****     \param on           on or off
 157:../../libDaisy//src/hid/disp/display.h ****     \return The rectangle that was drawn to
 158:../../libDaisy//src/hid/disp/display.h ****     */
 159:../../libDaisy//src/hid/disp/display.h ****     virtual Rectangle WriteStringAligned(const char*    str,
 160:../../libDaisy//src/hid/disp/display.h ****                                          const FontDef& font,
 161:../../libDaisy//src/hid/disp/display.h ****                                          Rectangle      boundingBox,
 162:../../libDaisy//src/hid/disp/display.h ****                                          Alignment      alignment,
 163:../../libDaisy//src/hid/disp/display.h ****                                          bool           on)
 164:../../libDaisy//src/hid/disp/display.h ****         = 0;
 165:../../libDaisy//src/hid/disp/display.h **** 
 166:../../libDaisy//src/hid/disp/display.h ****     /** 
 167:../../libDaisy//src/hid/disp/display.h ****     Moves the 'Cursor' position used for WriteChar, and WriteStr to the specified coordinate.
 168:../../libDaisy//src/hid/disp/display.h ****     \param x x pos
 169:../../libDaisy//src/hid/disp/display.h ****     \param y y pos
 170:../../libDaisy//src/hid/disp/display.h ****     */
 171:../../libDaisy//src/hid/disp/display.h ****     void SetCursor(uint16_t x, uint16_t y)
 172:../../libDaisy//src/hid/disp/display.h ****     {
 173:../../libDaisy//src/hid/disp/display.h ****         currentX_ = (x >= Width()) ? Width() - 1 : x;
 174:../../libDaisy//src/hid/disp/display.h ****         currentY_ = (y >= Height()) ? Height() - 1 : y;
 175:../../libDaisy//src/hid/disp/display.h ****     }
 176:../../libDaisy//src/hid/disp/display.h **** 
 177:../../libDaisy//src/hid/disp/display.h ****     /** 
 178:../../libDaisy//src/hid/disp/display.h ****     Writes the current display buffer to the OLED device using SPI or I2C depending on 
 179:../../libDaisy//src/hid/disp/display.h ****     how the object was initialized.
 180:../../libDaisy//src/hid/disp/display.h ****     */
 181:../../libDaisy//src/hid/disp/display.h ****     virtual void Update() = 0;
 182:../../libDaisy//src/hid/disp/display.h **** 
 183:../../libDaisy//src/hid/disp/display.h ****   protected:
 184:../../libDaisy//src/hid/disp/display.h ****     uint16_t currentX_;
 185:../../libDaisy//src/hid/disp/display.h ****     uint16_t currentY_;
 186:../../libDaisy//src/hid/disp/display.h **** };
 187:../../libDaisy//src/hid/disp/display.h **** 
 188:../../libDaisy//src/hid/disp/display.h **** /** This class is intended as a intermediary class for your actual implementation of the OneBitGrap
 189:../../libDaisy//src/hid/disp/display.h ****  *  interface. It uses the CRTP design pattern where the template argument is the child class. It p
 190:../../libDaisy//src/hid/disp/display.h ****  *  implementations for most of the functions, except DrawPixel(), Update() and Fill(), which you'l
 191:../../libDaisy//src/hid/disp/display.h ****  *  to provide in your child class.
 192:../../libDaisy//src/hid/disp/display.h ****  *  The main goal of this class is to provide common drawing functions without relying on massive a
 193:../../libDaisy//src/hid/disp/display.h ****  *  virtual function calls that would result in a performance loss. To achieve this, any drawing fu
 194:../../libDaisy//src/hid/disp/display.h ****  *  is implemented here and internally calls other drawing functions (e.g. DrawRect() which interna
 195:../../libDaisy//src/hid/disp/display.h ****  *  DrawPixel() and DrawLine()) makes these calls via the qualified name of these functions to expl
 196:../../libDaisy//src/hid/disp/display.h ****  *  suppress the virtual dispatch mechanism like this:
 197:../../libDaisy//src/hid/disp/display.h ****  * 
 198:../../libDaisy//src/hid/disp/display.h ****  *      ChildType::DrawPixel(...); // no virtual function call; direct call into the child class fu
 199:../../libDaisy//src/hid/disp/display.h ****  *  
 200:../../libDaisy//src/hid/disp/display.h ****  *  To create a custom OneBitGraphicsDisplay implementation, you can 
 201:../../libDaisy//src/hid/disp/display.h ****  *  A) inherit from OneBitGraphicsDisplay directly and provide all the drawing functions yourself
 202:../../libDaisy//src/hid/disp/display.h ****  *  B) Inherit from OneBitGraphicsDisplayImpl and only provide DrawPixel(), Fill() and Update()
 203:../../libDaisy//src/hid/disp/display.h ****  *     like this:
 204:../../libDaisy//src/hid/disp/display.h ****  *  
 205:../../libDaisy//src/hid/disp/display.h ****  *      class MyDisplayClass : public OneBitGraphicsDisplayImpl<MyDisplayClass> 
ARM GAS  C:\Users\halcyon\AppData\Local\Temp\ccgaMkHw.s 			page 36


 206:../../libDaisy//src/hid/disp/display.h ****  *      {
 207:../../libDaisy//src/hid/disp/display.h ****  *      public:
 208:../../libDaisy//src/hid/disp/display.h ****  *          void Fill() override { ... };
 209:../../libDaisy//src/hid/disp/display.h ****  *          void DrawPixel(uint_fast8_t x, uint_fast8_t y, bool on) override { ... };
 210:../../libDaisy//src/hid/disp/display.h ****  *          void Update() override { ... }
 211:../../libDaisy//src/hid/disp/display.h ****  *      };
 212:../../libDaisy//src/hid/disp/display.h ****  *  
 213:../../libDaisy//src/hid/disp/display.h ****  */
 214:../../libDaisy//src/hid/disp/display.h **** template <class ChildType>
 215:../../libDaisy//src/hid/disp/display.h **** class OneBitGraphicsDisplayImpl : public OneBitGraphicsDisplay
 216:../../libDaisy//src/hid/disp/display.h **** {
 217:../../libDaisy//src/hid/disp/display.h ****   public:
 218:../../libDaisy//src/hid/disp/display.h ****     OneBitGraphicsDisplayImpl() {}
 219:../../libDaisy//src/hid/disp/display.h ****     virtual ~OneBitGraphicsDisplayImpl() {}
 285              		.loc 19 219 13 view .LVU58
 286              	.LBB637:
 287              	.LBI637:
  23:../../libDaisy//src/hid/disp/display.h **** 
 288              		.loc 19 23 13 view .LVU59
  23:../../libDaisy//src/hid/disp/display.h **** 
 289              		.loc 19 23 13 is_stmt 0 view .LVU60
 290              	.LBE637:
 291              	.LBE636:
  18:../../libDaisy//src/hid/disp/oled_display.h **** 
 292              		.loc 17 18 29 view .LVU61
 293 0000 7047     		bx	lr
 294              		.cfi_endproc
 295              	.LFE3746:
 297              		.weak	_ZN5daisy11OledDisplayINS_13SSD130xDriverILj128ELj64ENS_24SSD130x4WireSpiTransportEEEED1Ev
 298              		.thumb_set _ZN5daisy11OledDisplayINS_13SSD130xDriverILj128ELj64ENS_24SSD130x4WireSpiTransportEEEED
 299 0002 00BF     		.section	.text._ZNK5daisy11OledDisplayINS_13SSD130xDriverILj128ELj64ENS_24SSD130x4WireSpiTransport
 300              		.align	1
 301              		.p2align 2,,3
 302              		.weak	_ZNK5daisy11OledDisplayINS_13SSD130xDriverILj128ELj64ENS_24SSD130x4WireSpiTransportEEEE6Heig
 303              		.syntax unified
 304              		.thumb
 305              		.thumb_func
 306              		.fpu fpv5-d16
 308              	_ZNK5daisy11OledDisplayINS_13SSD130xDriverILj128ELj64ENS_24SSD130x4WireSpiTransportEEEE6HeightEv:
 309              	.LVL8:
 310              	.LFB3749:
  27:../../libDaisy//src/hid/disp/oled_display.h ****     uint16_t Width() const override { return driver_.Width(); }
 311              		.loc 17 27 14 is_stmt 1 view -0
 312              		.cfi_startproc
 313              		@ args = 0, pretend = 0, frame = 0
 314              		@ frame_needed = 0, uses_anonymous_args = 0
 315              		@ link register save eliminated.
  27:../../libDaisy//src/hid/disp/oled_display.h ****     uint16_t Width() const override { return driver_.Width(); }
 316              		.loc 17 27 65 is_stmt 0 view .LVU63
 317 0000 4020     		movs	r0, #64
 318              	.LVL9:
  27:../../libDaisy//src/hid/disp/oled_display.h ****     uint16_t Width() const override { return driver_.Width(); }
 319              		.loc 17 27 65 view .LVU64
 320 0002 7047     		bx	lr
 321              		.cfi_endproc
 322              	.LFE3749:
 324              		.section	.text._ZNK5daisy11OledDisplayINS_13SSD130xDriverILj128ELj64ENS_24SSD130x4WireSpiTransport
ARM GAS  C:\Users\halcyon\AppData\Local\Temp\ccgaMkHw.s 			page 37


 325              		.align	1
 326              		.p2align 2,,3
 327              		.weak	_ZNK5daisy11OledDisplayINS_13SSD130xDriverILj128ELj64ENS_24SSD130x4WireSpiTransportEEEE5Widt
 328              		.syntax unified
 329              		.thumb
 330              		.thumb_func
 331              		.fpu fpv5-d16
 333              	_ZNK5daisy11OledDisplayINS_13SSD130xDriverILj128ELj64ENS_24SSD130x4WireSpiTransportEEEE5WidthEv:
 334              	.LVL10:
 335              	.LFB3750:
  28:../../libDaisy//src/hid/disp/oled_display.h **** 
 336              		.loc 17 28 14 is_stmt 1 view -0
 337              		.cfi_startproc
 338              		@ args = 0, pretend = 0, frame = 0
 339              		@ frame_needed = 0, uses_anonymous_args = 0
 340              		@ link register save eliminated.
  28:../../libDaisy//src/hid/disp/oled_display.h **** 
 341              		.loc 17 28 63 is_stmt 0 view .LVU66
 342 0000 8020     		movs	r0, #128
 343              	.LVL11:
  28:../../libDaisy//src/hid/disp/oled_display.h **** 
 344              		.loc 17 28 63 view .LVU67
 345 0002 7047     		bx	lr
 346              		.cfi_endproc
 347              	.LFE3750:
 349              		.section	.text._ZN5daisy11OledDisplayINS_13SSD130xDriverILj128ELj64ENS_24SSD130x4WireSpiTransportE
 350              		.align	1
 351              		.p2align 2,,3
 352              		.weak	_ZN5daisy11OledDisplayINS_13SSD130xDriverILj128ELj64ENS_24SSD130x4WireSpiTransportEEEED0Ev
 353              		.syntax unified
 354              		.thumb
 355              		.thumb_func
 356              		.fpu fpv5-d16
 358              	_ZN5daisy11OledDisplayINS_13SSD130xDriverILj128ELj64ENS_24SSD130x4WireSpiTransportEEEED0Ev:
 359              	.LVL12:
 360              	.LFB3748:
  18:../../libDaisy//src/hid/disp/oled_display.h **** 
 361              		.loc 17 18 13 is_stmt 1 view -0
 362              		.cfi_startproc
 363              		@ args = 0, pretend = 0, frame = 0
 364              		@ frame_needed = 0, uses_anonymous_args = 0
  18:../../libDaisy//src/hid/disp/oled_display.h **** 
 365              		.loc 17 18 13 is_stmt 0 view .LVU69
 366 0000 10B5     		push	{r4, lr}
 367              		.cfi_def_cfa_offset 8
 368              		.cfi_offset 4, -8
 369              		.cfi_offset 14, -4
  18:../../libDaisy//src/hid/disp/oled_display.h **** 
 370              		.loc 17 18 13 view .LVU70
 371 0002 0446     		mov	r4, r0
 372              	.LVL13:
 373              	.LBB638:
 374              	.LBI638:
  18:../../libDaisy//src/hid/disp/oled_display.h **** 
 375              		.loc 17 18 13 is_stmt 1 view .LVU71
 376              	.LBB639:
 377              	.LBI639:
ARM GAS  C:\Users\halcyon\AppData\Local\Temp\ccgaMkHw.s 			page 38


 378              		.loc 19 219 13 view .LVU72
 379              	.LBB640:
 380              	.LBI640:
  23:../../libDaisy//src/hid/disp/display.h **** 
 381              		.loc 19 23 13 view .LVU73
  23:../../libDaisy//src/hid/disp/display.h **** 
 382              		.loc 19 23 13 is_stmt 0 view .LVU74
 383              	.LBE640:
 384              	.LBE639:
 385              	.LBE638:
  18:../../libDaisy//src/hid/disp/oled_display.h **** 
 386              		.loc 17 18 29 view .LVU75
 387 0004 40F21441 		movw	r1, #1044
 388 0008 FFF7FEFF 		bl	_ZdlPvj
 389              	.LVL14:
  18:../../libDaisy//src/hid/disp/oled_display.h **** 
 390              		.loc 17 18 29 view .LVU76
 391 000c 2046     		mov	r0, r4
 392 000e 10BD     		pop	{r4, pc}
  18:../../libDaisy//src/hid/disp/oled_display.h **** 
 393              		.loc 17 18 29 view .LVU77
 394              		.cfi_endproc
 395              	.LFE3748:
 397              		.section	.rodata._Z13CacheFileListv.part.0.str1.4,"aMS",%progbits,1
 398              		.align	2
 399              	.LC5:
 400 0000 2E2E00   		.ascii	"..\000"
 401              		.section	.text._Z13CacheFileListv.part.0,"ax",%progbits
 402              		.align	1
 403              		.p2align 2,,3
 404              		.syntax unified
 405              		.thumb
 406              		.thumb_func
 407              		.fpu fpv5-d16
 409              	_Z13CacheFileListv.part.0:
 410              	.LFB3758:
 411              		.file 20 "SimpleSampler.cpp"
   1:SimpleSampler.cpp **** #include <stdio.h>
   2:SimpleSampler.cpp **** #include <string.h>
   3:SimpleSampler.cpp **** #include "daisy_pod.h"
   4:SimpleSampler.cpp **** #include "dev/oled_ssd130x.h"
   5:SimpleSampler.cpp **** #include <string>
   6:SimpleSampler.cpp **** 
   7:SimpleSampler.cpp **** 
   8:SimpleSampler.cpp **** using namespace daisy;
   9:SimpleSampler.cpp **** using namespace std;
  10:SimpleSampler.cpp **** 
  11:SimpleSampler.cpp **** 
  12:SimpleSampler.cpp **** using MyOledDisplay = OledDisplay<SSD130x4WireSpi128x64Driver>;
  13:SimpleSampler.cpp **** 
  14:SimpleSampler.cpp **** DaisyPod      hw;
  15:SimpleSampler.cpp **** MyOledDisplay display;
  16:SimpleSampler.cpp **** Parameter p_knob1, p_knob2;
  17:SimpleSampler.cpp **** static int32_t  inc;
  18:SimpleSampler.cpp **** 
  19:SimpleSampler.cpp **** // File browsing state
  20:SimpleSampler.cpp **** const int MAX_FILES = 100;
ARM GAS  C:\Users\halcyon\AppData\Local\Temp\ccgaMkHw.s 			page 39


  21:SimpleSampler.cpp **** const int FILES_PER_SCREEN = 4;  // Show 4 files at once (fits in 64px height)
  22:SimpleSampler.cpp **** char fileList[MAX_FILES][32];    // Cache filenames
  23:SimpleSampler.cpp **** bool isDirectory[MAX_FILES];     // Track which entries are directories
  24:SimpleSampler.cpp **** int totalFiles = 0;
  25:SimpleSampler.cpp **** int selectedFile = 0;             // Currently selected file index
  26:SimpleSampler.cpp **** int windowStart = 0;              // First file shown in current window
  27:SimpleSampler.cpp **** char currentPath[256];            // Current directory path (e.g., "/" or "/folder")
  28:SimpleSampler.cpp **** 
  29:SimpleSampler.cpp **** 
  30:SimpleSampler.cpp **** SdmmcHandler   sd;
  31:SimpleSampler.cpp **** FatFSInterface fsi;
  32:SimpleSampler.cpp **** FIL            SDFile;
  33:SimpleSampler.cpp **** DIR            dir;
  34:SimpleSampler.cpp **** FILINFO        fno;
  35:SimpleSampler.cpp **** 
  36:SimpleSampler.cpp **** 
  37:SimpleSampler.cpp **** 
  38:SimpleSampler.cpp **** const uint32_t DISPLAY_FPS = 30;                        //  FPS -- later converted to time in ms
  39:SimpleSampler.cpp **** 
  40:SimpleSampler.cpp **** 
  41:SimpleSampler.cpp **** // Forward declarations
  42:SimpleSampler.cpp **** void CacheFileList();
  43:SimpleSampler.cpp **** 
  44:SimpleSampler.cpp **** // Helper function to get current folder name from path
  45:SimpleSampler.cpp **** const char* GetCurrentFolderName() {
  46:SimpleSampler.cpp ****     static char folderName[32];
  47:SimpleSampler.cpp ****     
  48:SimpleSampler.cpp ****     // If at root, return "Root"
  49:SimpleSampler.cpp ****     if(strcmp(currentPath, "/") == 0 || strlen(currentPath) == 0) {
  50:SimpleSampler.cpp ****         strcpy(folderName, "Root");
  51:SimpleSampler.cpp ****         return folderName;
  52:SimpleSampler.cpp ****     }
  53:SimpleSampler.cpp ****     
  54:SimpleSampler.cpp ****     // Find the last '/' in the path to get the folder name
  55:SimpleSampler.cpp ****     int len = strlen(currentPath);
  56:SimpleSampler.cpp ****     int lastSlash = 0;
  57:SimpleSampler.cpp ****     for(int i = len - 1; i >= 0; i--) {
  58:SimpleSampler.cpp ****         if(currentPath[i] == '/') {
  59:SimpleSampler.cpp ****             lastSlash = i;
  60:SimpleSampler.cpp ****             break;
  61:SimpleSampler.cpp ****         }
  62:SimpleSampler.cpp ****     }
  63:SimpleSampler.cpp ****     
  64:SimpleSampler.cpp ****     // Copy the folder name (everything after the last '/')
  65:SimpleSampler.cpp ****     strncpy(folderName, currentPath + lastSlash + 1, 31);
  66:SimpleSampler.cpp ****     folderName[31] = '\0';
  67:SimpleSampler.cpp ****     return folderName;
  68:SimpleSampler.cpp **** }
  69:SimpleSampler.cpp **** 
  70:SimpleSampler.cpp **** // Helper function to enter a directory
  71:SimpleSampler.cpp **** void EnterDirectory(const char* dirName) {
  72:SimpleSampler.cpp ****     if(strcmp(dirName, "..") == 0) {
  73:SimpleSampler.cpp ****         // Go up to parent directory
  74:SimpleSampler.cpp ****         // Find the last '/' and truncate there
  75:SimpleSampler.cpp ****         int len = strlen(currentPath);
  76:SimpleSampler.cpp ****         for(int i = len - 1; i >= 0; i--) {
  77:SimpleSampler.cpp ****             if(currentPath[i] == '/') {
ARM GAS  C:\Users\halcyon\AppData\Local\Temp\ccgaMkHw.s 			page 40


  78:SimpleSampler.cpp ****                 if(i == 0) {
  79:SimpleSampler.cpp ****                     // At root, keep "/"
  80:SimpleSampler.cpp ****                     currentPath[1] = '\0';
  81:SimpleSampler.cpp ****                 } else {
  82:SimpleSampler.cpp ****                     currentPath[i] = '\0';
  83:SimpleSampler.cpp ****                 }
  84:SimpleSampler.cpp ****                 break;
  85:SimpleSampler.cpp ****             }
  86:SimpleSampler.cpp ****         }
  87:SimpleSampler.cpp ****     } else {
  88:SimpleSampler.cpp ****         // Enter subdirectory
  89:SimpleSampler.cpp ****         // Append directory name to current path
  90:SimpleSampler.cpp ****         if(strcmp(currentPath, "/") == 0) {
  91:SimpleSampler.cpp ****             // At root, don't add extra slash
  92:SimpleSampler.cpp ****             sprintf(currentPath, "/%s", dirName);
  93:SimpleSampler.cpp ****         } else {
  94:SimpleSampler.cpp ****             // Not at root, add separator
  95:SimpleSampler.cpp ****             sprintf(currentPath, "%s/%s", currentPath, dirName);
  96:SimpleSampler.cpp ****         }
  97:SimpleSampler.cpp ****     }
  98:SimpleSampler.cpp **** 
  99:SimpleSampler.cpp ****     // Reset selection and refresh file list
 100:SimpleSampler.cpp ****     selectedFile = 0;
 101:SimpleSampler.cpp ****     windowStart = 0;
 102:SimpleSampler.cpp ****     CacheFileList();
 103:SimpleSampler.cpp **** }
 104:SimpleSampler.cpp **** 
 105:SimpleSampler.cpp **** // Function to cache filenames and directories from SD card
 106:SimpleSampler.cpp **** void CacheFileList() {
 412              		.loc 20 106 6 is_stmt 1 view -0
 413              		.cfi_startproc
 414              		@ args = 0, pretend = 0, frame = 0
 415              		@ frame_needed = 0, uses_anonymous_args = 0
 416 0000 F8B5     		push	{r3, r4, r5, r6, r7, lr}
 417              		.cfi_def_cfa_offset 24
 418              		.cfi_offset 3, -24
 419              		.cfi_offset 4, -20
 420              		.cfi_offset 5, -16
 421              		.cfi_offset 6, -12
 422              		.cfi_offset 7, -8
 423              		.cfi_offset 14, -4
 107:SimpleSampler.cpp ****     totalFiles = 0;
 108:SimpleSampler.cpp **** 
 109:SimpleSampler.cpp ****     if(f_opendir(&dir, currentPath) != FR_OK) return;
 110:SimpleSampler.cpp **** 
 111:SimpleSampler.cpp ****     // First, read all files and directories
 112:SimpleSampler.cpp ****     while(totalFiles < MAX_FILES - 1) {  // Reserve space for ".." entry
 424              		.loc 20 112 22 is_stmt 0 view .LVU79
 425 0002 204D     		ldr	r5, .L24
 426              	.L21:
 427 0004 2A68     		ldr	r2, [r5]
 428              		.loc 20 112 5 is_stmt 1 view .LVU80
 429              		.loc 20 112 22 view .LVU81
 430              	.LBB641:
 113:SimpleSampler.cpp ****         FRESULT res = f_readdir(&dir, &fno);
 431              		.loc 20 113 9 view .LVU82
 432              		.loc 20 113 32 is_stmt 0 view .LVU83
ARM GAS  C:\Users\halcyon\AppData\Local\Temp\ccgaMkHw.s 			page 41


 433 0006 204C     		ldr	r4, .L24+4
 434              	.LBE641:
 112:SimpleSampler.cpp ****         FRESULT res = f_readdir(&dir, &fno);
 435              		.loc 20 112 22 view .LVU84
 436 0008 622A     		cmp	r2, #98
 437              	.LBB642:
 438              		.loc 20 113 32 view .LVU85
 439 000a 2048     		ldr	r0, .L24+8
 440 000c 2146     		mov	r1, r4
 441              	.LBE642:
 112:SimpleSampler.cpp ****         FRESULT res = f_readdir(&dir, &fno);
 442              		.loc 20 112 22 view .LVU86
 443 000e 1EDC     		bgt	.L12
 444              	.L22:
 445              	.LBB643:
 446              		.loc 20 113 32 view .LVU87
 447 0010 FFF7FEFF 		bl	f_readdir
 448              	.LVL15:
 114:SimpleSampler.cpp ****         if(res != FR_OK || fno.fname[0] == 0) break;
 115:SimpleSampler.cpp ****         if(fno.fattrib & AM_HID) continue;  // Skip hidden files, but NOT directories
 449              		.loc 20 115 9 is_stmt 1 view .LVU88
 116:SimpleSampler.cpp **** 
 117:SimpleSampler.cpp ****         strncpy(fileList[totalFiles], fno.fname, 31);
 450              		.loc 20 117 9 view .LVU89
 114:SimpleSampler.cpp ****         if(res != FR_OK || fno.fname[0] == 0) break;
 451              		.loc 20 114 9 view .LVU90
 452              		.loc 20 117 36 is_stmt 0 view .LVU91
 453 0014 1E4B     		ldr	r3, .L24+12
 454              		.loc 20 117 16 view .LVU92
 455 0016 1F22     		movs	r2, #31
 456 0018 04F11601 		add	r1, r4, #22
 114:SimpleSampler.cpp ****         if(res != FR_OK || fno.fname[0] == 0) break;
 457              		.loc 20 114 9 view .LVU93
 458 001c B8B9     		cbnz	r0, .L12
 114:SimpleSampler.cpp ****         if(res != FR_OK || fno.fname[0] == 0) break;
 459              		.loc 20 114 25 view .LVU94
 460 001e A07D     		ldrb	r0, [r4, #22]	@ zero_extendqisi2
 461              	.LVL16:
 114:SimpleSampler.cpp ****         if(res != FR_OK || fno.fname[0] == 0) break;
 462              		.loc 20 114 25 view .LVU95
 463 0020 A8B1     		cbz	r0, .L12
 115:SimpleSampler.cpp **** 
 464              		.loc 20 115 16 view .LVU96
 465 0022 247A     		ldrb	r4, [r4, #8]	@ zero_extendqisi2
 115:SimpleSampler.cpp **** 
 466              		.loc 20 115 9 view .LVU97
 467 0024 14F00207 		ands	r7, r4, #2
 468 0028 ECD1     		bne	.L21
 469              		.loc 20 117 36 view .LVU98
 470 002a 2E68     		ldr	r6, [r5]
 118:SimpleSampler.cpp ****         fileList[totalFiles][31] = '\0';
 119:SimpleSampler.cpp ****         isDirectory[totalFiles] = (fno.fattrib & AM_DIR) ? true : false;
 471              		.loc 20 119 58 view .LVU99
 472 002c C4F30014 		ubfx	r4, r4, #4, #1
 117:SimpleSampler.cpp ****         fileList[totalFiles][31] = '\0';
 473              		.loc 20 117 36 view .LVU100
 474 0030 03EB4613 		add	r3, r3, r6, lsl #5
ARM GAS  C:\Users\halcyon\AppData\Local\Temp\ccgaMkHw.s 			page 42


 117:SimpleSampler.cpp ****         fileList[totalFiles][31] = '\0';
 475              		.loc 20 117 16 view .LVU101
 476 0034 1846     		mov	r0, r3
 477 0036 FFF7FEFF 		bl	strncpy
 478              	.LVL17:
 118:SimpleSampler.cpp ****         fileList[totalFiles][31] = '\0';
 479              		.loc 20 118 9 is_stmt 1 view .LVU102
 480              		.loc 20 119 33 is_stmt 0 view .LVU103
 481 003a 1649     		ldr	r1, .L24+16
 120:SimpleSampler.cpp ****         totalFiles++;
 482              		.loc 20 120 19 view .LVU104
 483 003c 721C     		adds	r2, r6, #1
 118:SimpleSampler.cpp ****         fileList[totalFiles][31] = '\0';
 484              		.loc 20 118 34 view .LVU105
 485 003e C777     		strb	r7, [r0, #31]
 119:SimpleSampler.cpp ****         totalFiles++;
 486              		.loc 20 119 9 is_stmt 1 view .LVU106
 119:SimpleSampler.cpp ****         totalFiles++;
 487              		.loc 20 119 58 is_stmt 0 view .LVU107
 488 0040 8C55     		strb	r4, [r1, r6]
 489              		.loc 20 120 9 is_stmt 1 view .LVU108
 490              	.LBE643:
 112:SimpleSampler.cpp ****         FRESULT res = f_readdir(&dir, &fno);
 491              		.loc 20 112 22 is_stmt 0 view .LVU109
 492 0042 622A     		cmp	r2, #98
 493              	.LBB644:
 113:SimpleSampler.cpp ****         if(res != FR_OK || fno.fname[0] == 0) break;
 494              		.loc 20 113 32 view .LVU110
 495 0044 104C     		ldr	r4, .L24+4
 496 0046 1148     		ldr	r0, .L24+8
 497 0048 2146     		mov	r1, r4
 498              		.loc 20 120 19 view .LVU111
 499 004a 2A60     		str	r2, [r5]
 500              	.LBE644:
 112:SimpleSampler.cpp ****         FRESULT res = f_readdir(&dir, &fno);
 501              		.loc 20 112 5 is_stmt 1 view .LVU112
 112:SimpleSampler.cpp ****         FRESULT res = f_readdir(&dir, &fno);
 502              		.loc 20 112 22 view .LVU113
 503              	.LBB645:
 113:SimpleSampler.cpp ****         if(res != FR_OK || fno.fname[0] == 0) break;
 504              		.loc 20 113 9 view .LVU114
 505              	.LBE645:
 112:SimpleSampler.cpp ****         FRESULT res = f_readdir(&dir, &fno);
 506              		.loc 20 112 22 is_stmt 0 view .LVU115
 507 004c E0DD     		ble	.L22
 508              	.L12:
 121:SimpleSampler.cpp ****     }
 122:SimpleSampler.cpp **** 
 123:SimpleSampler.cpp ****     f_closedir(&dir);
 509              		.loc 20 123 5 is_stmt 1 view .LVU116
 510              		.loc 20 123 15 is_stmt 0 view .LVU117
 511 004e 0F48     		ldr	r0, .L24+8
 512 0050 FFF7FEFF 		bl	f_closedir
 513              	.LVL18:
 124:SimpleSampler.cpp **** 
 125:SimpleSampler.cpp ****     // Add ".." (parent directory) entry at the bottom
 126:SimpleSampler.cpp ****     // Only add if we're not at root (root is "/" or empty)
ARM GAS  C:\Users\halcyon\AppData\Local\Temp\ccgaMkHw.s 			page 43


 127:SimpleSampler.cpp ****     if(strlen(currentPath) > 1) {
 514              		.loc 20 127 5 is_stmt 1 view .LVU118
 515              		.loc 20 127 14 is_stmt 0 view .LVU119
 516 0054 1048     		ldr	r0, .L24+20
 517 0056 FFF7FEFF 		bl	strlen
 518              	.LVL19:
 519              		.loc 20 127 5 view .LVU120
 520 005a 0128     		cmp	r0, #1
 521 005c 00D8     		bhi	.L23
 128:SimpleSampler.cpp ****         strncpy(fileList[totalFiles], "..", 31);
 129:SimpleSampler.cpp ****         fileList[totalFiles][31] = '\0';
 130:SimpleSampler.cpp ****         isDirectory[totalFiles] = true;  // ".." is a virtual directory
 131:SimpleSampler.cpp ****         totalFiles++;
 132:SimpleSampler.cpp ****     }
 133:SimpleSampler.cpp **** }
 522              		.loc 20 133 1 view .LVU121
 523 005e F8BD     		pop	{r3, r4, r5, r6, r7, pc}
 524              	.L23:
 128:SimpleSampler.cpp ****         strncpy(fileList[totalFiles], "..", 31);
 525              		.loc 20 128 9 is_stmt 1 view .LVU122
 128:SimpleSampler.cpp ****         strncpy(fileList[totalFiles], "..", 31);
 526              		.loc 20 128 36 is_stmt 0 view .LVU123
 527 0060 2C68     		ldr	r4, [r5]
 128:SimpleSampler.cpp ****         strncpy(fileList[totalFiles], "..", 31);
 528              		.loc 20 128 16 view .LVU124
 529 0062 1F22     		movs	r2, #31
 128:SimpleSampler.cpp ****         strncpy(fileList[totalFiles], "..", 31);
 530              		.loc 20 128 36 view .LVU125
 531 0064 0A4B     		ldr	r3, .L24+12
 128:SimpleSampler.cpp ****         strncpy(fileList[totalFiles], "..", 31);
 532              		.loc 20 128 16 view .LVU126
 533 0066 0D49     		ldr	r1, .L24+24
 128:SimpleSampler.cpp ****         strncpy(fileList[totalFiles], "..", 31);
 534              		.loc 20 128 36 view .LVU127
 535 0068 03EB4413 		add	r3, r3, r4, lsl #5
 128:SimpleSampler.cpp ****         strncpy(fileList[totalFiles], "..", 31);
 536              		.loc 20 128 16 view .LVU128
 537 006c 1846     		mov	r0, r3
 538 006e FFF7FEFF 		bl	strncpy
 539              	.LVL20:
 129:SimpleSampler.cpp ****         isDirectory[totalFiles] = true;  // ".." is a virtual directory
 540              		.loc 20 129 9 is_stmt 1 view .LVU129
 129:SimpleSampler.cpp ****         isDirectory[totalFiles] = true;  // ".." is a virtual directory
 541              		.loc 20 129 34 is_stmt 0 view .LVU130
 542 0072 0021     		movs	r1, #0
 130:SimpleSampler.cpp ****         totalFiles++;
 543              		.loc 20 130 33 view .LVU131
 544 0074 074A     		ldr	r2, .L24+16
 129:SimpleSampler.cpp ****         isDirectory[totalFiles] = true;  // ".." is a virtual directory
 545              		.loc 20 129 34 view .LVU132
 546 0076 C177     		strb	r1, [r0, #31]
 130:SimpleSampler.cpp ****         totalFiles++;
 547              		.loc 20 130 9 is_stmt 1 view .LVU133
 130:SimpleSampler.cpp ****         totalFiles++;
 548              		.loc 20 130 33 is_stmt 0 view .LVU134
 549 0078 0121     		movs	r1, #1
 131:SimpleSampler.cpp ****     }
ARM GAS  C:\Users\halcyon\AppData\Local\Temp\ccgaMkHw.s 			page 44


 550              		.loc 20 131 19 view .LVU135
 551 007a 6318     		adds	r3, r4, r1
 130:SimpleSampler.cpp ****         totalFiles++;
 552              		.loc 20 130 33 view .LVU136
 553 007c 1155     		strb	r1, [r2, r4]
 131:SimpleSampler.cpp ****     }
 554              		.loc 20 131 9 is_stmt 1 view .LVU137
 131:SimpleSampler.cpp ****     }
 555              		.loc 20 131 19 is_stmt 0 view .LVU138
 556 007e 2B60     		str	r3, [r5]
 557              		.loc 20 133 1 view .LVU139
 558 0080 F8BD     		pop	{r3, r4, r5, r6, r7, pc}
 559              	.L25:
 560 0082 00BF     		.align	2
 561              	.L24:
 562 0084 00000000 		.word	.LANCHOR0
 563 0088 00000000 		.word	.LANCHOR1
 564 008c 00000000 		.word	.LANCHOR2
 565 0090 00000000 		.word	.LANCHOR3
 566 0094 00000000 		.word	.LANCHOR4
 567 0098 00000000 		.word	.LANCHOR5
 568 009c 00000000 		.word	.LC5
 569              		.cfi_endproc
 570              	.LFE3758:
 572              		.section	.text._ZN5daisy11OledDisplayINS_13SSD130xDriverILj128ELj64ENS_24SSD130x4WireSpiTransportE
 573              		.align	1
 574              		.p2align 2,,3
 575              		.weak	_ZN5daisy11OledDisplayINS_13SSD130xDriverILj128ELj64ENS_24SSD130x4WireSpiTransportEEEE6Updat
 576              		.syntax unified
 577              		.thumb
 578              		.thumb_func
 579              		.fpu fpv5-d16
 581              	_ZN5daisy11OledDisplayINS_13SSD130xDriverILj128ELj64ENS_24SSD130x4WireSpiTransportEEEE6UpdateEv:
 582              	.LVL21:
 583              	.LFB3486:
  35:../../libDaisy//src/hid/disp/oled_display.h **** 
  36:../../libDaisy//src/hid/disp/oled_display.h ****     /**
  37:../../libDaisy//src/hid/disp/oled_display.h ****     Sets the pixel at the specified coordinate to be on/off.
  38:../../libDaisy//src/hid/disp/oled_display.h ****     \param x   x Coordinate
  39:../../libDaisy//src/hid/disp/oled_display.h ****     \param y   y coordinate
  40:../../libDaisy//src/hid/disp/oled_display.h ****     \param on  on or off
  41:../../libDaisy//src/hid/disp/oled_display.h ****     */
  42:../../libDaisy//src/hid/disp/oled_display.h ****     void DrawPixel(uint_fast8_t x, uint_fast8_t y, bool on) override
  43:../../libDaisy//src/hid/disp/oled_display.h ****     {
  44:../../libDaisy//src/hid/disp/oled_display.h ****         driver_.DrawPixel(x, y, on);
  45:../../libDaisy//src/hid/disp/oled_display.h ****     }
  46:../../libDaisy//src/hid/disp/oled_display.h **** 
  47:../../libDaisy//src/hid/disp/oled_display.h ****     /** 
  48:../../libDaisy//src/hid/disp/oled_display.h ****     Writes the current display buffer to the OLED device using SPI or I2C depending on 
  49:../../libDaisy//src/hid/disp/oled_display.h ****     how the object was initialized.
  50:../../libDaisy//src/hid/disp/oled_display.h ****     */
  51:../../libDaisy//src/hid/disp/oled_display.h ****     void Update() override { driver_.Update(); }
 584              		.loc 17 51 10 is_stmt 1 view -0
 585              		.cfi_startproc
 586              		@ args = 0, pretend = 0, frame = 8
 587              		@ frame_needed = 0, uses_anonymous_args = 0
 588              	.LBB656:
ARM GAS  C:\Users\halcyon\AppData\Local\Temp\ccgaMkHw.s 			page 45


 589              	.LBI656:
 367:../../libDaisy//src/dev/oled_ssd130x.h ****         }
 368:../../libDaisy//src/dev/oled_ssd130x.h ****     };
 369:../../libDaisy//src/dev/oled_ssd130x.h **** 
 370:../../libDaisy//src/dev/oled_ssd130x.h ****     /**
 371:../../libDaisy//src/dev/oled_ssd130x.h ****      * Update the display 
 372:../../libDaisy//src/dev/oled_ssd130x.h ****     */
 373:../../libDaisy//src/dev/oled_ssd130x.h ****     void Update()
 590              		.loc 18 373 10 view .LVU141
 591              	.LBB657:
 374:../../libDaisy//src/dev/oled_ssd130x.h ****     {
 375:../../libDaisy//src/dev/oled_ssd130x.h ****         uint8_t i;
 376:../../libDaisy//src/dev/oled_ssd130x.h ****         uint8_t high_column_addr;
 377:../../libDaisy//src/dev/oled_ssd130x.h ****         switch(height)
 378:../../libDaisy//src/dev/oled_ssd130x.h ****         {
 379:../../libDaisy//src/dev/oled_ssd130x.h ****             case 32: high_column_addr = 0x12; break;
 380:../../libDaisy//src/dev/oled_ssd130x.h **** 
 381:../../libDaisy//src/dev/oled_ssd130x.h ****             default: high_column_addr = 0x10; break;
 382:../../libDaisy//src/dev/oled_ssd130x.h ****         }
 383:../../libDaisy//src/dev/oled_ssd130x.h ****         for(i = 0; i < (height / 8); i++)
 592              		.loc 18 383 22 view .LVU142
 593              	.LBE657:
 594              	.LBE656:
 595              		.loc 17 51 10 is_stmt 0 view .LVU143
 596 0000 2DE9F041 		push	{r4, r5, r6, r7, r8, lr}
 597              		.cfi_def_cfa_offset 24
 598              		.cfi_offset 4, -24
 599              		.cfi_offset 5, -20
 600              		.cfi_offset 6, -16
 601              		.cfi_offset 7, -12
 602              		.cfi_offset 8, -8
 603              		.cfi_offset 14, -4
 604              	.LBB679:
 605              	.LBB677:
 606              	.LBB658:
 607              	.LBB659:
 125:../../libDaisy//src/dev/oled_ssd130x.h ****     };
 608              		.loc 18 125 30 view .LVU144
 609 0004 B024     		movs	r4, #176
 610              	.LBE659:
 611              	.LBE658:
 612              	.LBE677:
 613              	.LBE679:
 614              		.loc 17 51 10 view .LVU145
 615 0006 82B0     		sub	sp, sp, #8
 616              		.cfi_def_cfa_offset 32
 617              	.LBB680:
 618              	.LBB678:
 619              	.LBB664:
 620              	.LBB660:
 124:../../libDaisy//src/dev/oled_ssd130x.h ****         spi_.BlockingTransmit(&cmd, 1);
 621              		.loc 18 124 24 view .LVU146
 622 0008 00F10806 		add	r6, r0, #8
 623 000c 00F11005 		add	r5, r0, #16
 624 0010 00F11408 		add	r8, r0, #20
 625              	.LVL22:
 626              	.L27:
ARM GAS  C:\Users\halcyon\AppData\Local\Temp\ccgaMkHw.s 			page 46


 124:../../libDaisy//src/dev/oled_ssd130x.h ****         spi_.BlockingTransmit(&cmd, 1);
 627              		.loc 18 124 24 view .LVU147
 628 0014 0027     		movs	r7, #0
 124:../../libDaisy//src/dev/oled_ssd130x.h ****         spi_.BlockingTransmit(&cmd, 1);
 629              		.loc 18 124 23 view .LVU148
 630 0016 2846     		mov	r0, r5
 631 0018 8DF80740 		strb	r4, [sp, #7]
 632              	.LVL23:
 124:../../libDaisy//src/dev/oled_ssd130x.h ****         spi_.BlockingTransmit(&cmd, 1);
 633              		.loc 18 124 23 view .LVU149
 634              	.LBE660:
 635              	.LBI658:
 122:../../libDaisy//src/dev/oled_ssd130x.h ****     {
 636              		.loc 18 122 10 is_stmt 1 view .LVU150
 637              	.LBB661:
 124:../../libDaisy//src/dev/oled_ssd130x.h ****         spi_.BlockingTransmit(&cmd, 1);
 638              		.loc 18 124 9 view .LVU151
 639              	.LBE661:
 640              	.LBE664:
 641              		.loc 18 383 22 is_stmt 0 view .LVU152
 642 001c 0134     		adds	r4, r4, #1
 643              	.LVL24:
 644              	.LBB665:
 645              	.LBB662:
 124:../../libDaisy//src/dev/oled_ssd130x.h ****         spi_.BlockingTransmit(&cmd, 1);
 646              		.loc 18 124 23 view .LVU153
 647 001e 3946     		mov	r1, r7
 648 0020 FFF7FEFF 		bl	dsy_gpio_write
 649              	.LVL25:
 125:../../libDaisy//src/dev/oled_ssd130x.h ****     };
 650              		.loc 18 125 9 is_stmt 1 view .LVU154
 125:../../libDaisy//src/dev/oled_ssd130x.h ****     };
 651              		.loc 18 125 30 is_stmt 0 view .LVU155
 652 0024 6423     		movs	r3, #100
 653 0026 0122     		movs	r2, #1
 654 0028 0DF10701 		add	r1, sp, #7
 655 002c 3046     		mov	r0, r6
 656              	.LBE662:
 657              	.LBE665:
 658              		.loc 18 383 22 view .LVU156
 659 002e E4B2     		uxtb	r4, r4
 660              	.LBB666:
 661              	.LBB663:
 125:../../libDaisy//src/dev/oled_ssd130x.h ****     };
 662              		.loc 18 125 30 view .LVU157
 663 0030 FFF7FEFF 		bl	_ZN5daisy9SpiHandle16BlockingTransmitEPhjm
 664              	.LVL26:
 125:../../libDaisy//src/dev/oled_ssd130x.h ****     };
 665              		.loc 18 125 30 view .LVU158
 666              	.LBE663:
 667              	.LBE666:
 668              	.LBB667:
 669              	.LBB668:
 124:../../libDaisy//src/dev/oled_ssd130x.h ****         spi_.BlockingTransmit(&cmd, 1);
 670              		.loc 18 124 23 view .LVU159
 671 0034 3946     		mov	r1, r7
 672 0036 2846     		mov	r0, r5
ARM GAS  C:\Users\halcyon\AppData\Local\Temp\ccgaMkHw.s 			page 47


 673 0038 8DF80770 		strb	r7, [sp, #7]
 674              	.LVL27:
 124:../../libDaisy//src/dev/oled_ssd130x.h ****         spi_.BlockingTransmit(&cmd, 1);
 675              		.loc 18 124 23 view .LVU160
 676              	.LBE668:
 677              	.LBI667:
 122:../../libDaisy//src/dev/oled_ssd130x.h ****     {
 678              		.loc 18 122 10 is_stmt 1 view .LVU161
 679              	.LBB669:
 124:../../libDaisy//src/dev/oled_ssd130x.h ****         spi_.BlockingTransmit(&cmd, 1);
 680              		.loc 18 124 9 view .LVU162
 124:../../libDaisy//src/dev/oled_ssd130x.h ****         spi_.BlockingTransmit(&cmd, 1);
 681              		.loc 18 124 23 is_stmt 0 view .LVU163
 682 003c FFF7FEFF 		bl	dsy_gpio_write
 683              	.LVL28:
 125:../../libDaisy//src/dev/oled_ssd130x.h ****     };
 684              		.loc 18 125 9 is_stmt 1 view .LVU164
 125:../../libDaisy//src/dev/oled_ssd130x.h ****     };
 685              		.loc 18 125 30 is_stmt 0 view .LVU165
 686 0040 0122     		movs	r2, #1
 687 0042 6423     		movs	r3, #100
 688 0044 0DF10701 		add	r1, sp, #7
 689 0048 3046     		mov	r0, r6
 690 004a FFF7FEFF 		bl	_ZN5daisy9SpiHandle16BlockingTransmitEPhjm
 691              	.LVL29:
 125:../../libDaisy//src/dev/oled_ssd130x.h ****     };
 692              		.loc 18 125 30 view .LVU166
 693 004e 1023     		movs	r3, #16
 694              	.LBE669:
 695              	.LBE667:
 696              	.LBB670:
 697              	.LBB671:
 124:../../libDaisy//src/dev/oled_ssd130x.h ****         spi_.BlockingTransmit(&cmd, 1);
 698              		.loc 18 124 23 view .LVU167
 699 0050 3946     		mov	r1, r7
 700 0052 2846     		mov	r0, r5
 701 0054 8DF80730 		strb	r3, [sp, #7]
 702              	.LVL30:
 124:../../libDaisy//src/dev/oled_ssd130x.h ****         spi_.BlockingTransmit(&cmd, 1);
 703              		.loc 18 124 23 view .LVU168
 704              	.LBE671:
 705              	.LBI670:
 122:../../libDaisy//src/dev/oled_ssd130x.h ****     {
 706              		.loc 18 122 10 is_stmt 1 view .LVU169
 707              	.LBB672:
 124:../../libDaisy//src/dev/oled_ssd130x.h ****         spi_.BlockingTransmit(&cmd, 1);
 708              		.loc 18 124 9 view .LVU170
 124:../../libDaisy//src/dev/oled_ssd130x.h ****         spi_.BlockingTransmit(&cmd, 1);
 709              		.loc 18 124 23 is_stmt 0 view .LVU171
 710 0058 FFF7FEFF 		bl	dsy_gpio_write
 711              	.LVL31:
 125:../../libDaisy//src/dev/oled_ssd130x.h ****     };
 712              		.loc 18 125 9 is_stmt 1 view .LVU172
 125:../../libDaisy//src/dev/oled_ssd130x.h ****     };
 713              		.loc 18 125 30 is_stmt 0 view .LVU173
 714 005c 6423     		movs	r3, #100
 715 005e 0122     		movs	r2, #1
ARM GAS  C:\Users\halcyon\AppData\Local\Temp\ccgaMkHw.s 			page 48


 716 0060 0DF10701 		add	r1, sp, #7
 717 0064 3046     		mov	r0, r6
 718 0066 FFF7FEFF 		bl	_ZN5daisy9SpiHandle16BlockingTransmitEPhjm
 719              	.LVL32:
 125:../../libDaisy//src/dev/oled_ssd130x.h ****     };
 720              		.loc 18 125 30 view .LVU174
 721              	.LBE672:
 722              	.LBE670:
 723              	.LBB673:
 724              	.LBI673:
 128:../../libDaisy//src/dev/oled_ssd130x.h ****     {
 725              		.loc 18 128 10 is_stmt 1 view .LVU175
 726              	.LBB674:
 130:../../libDaisy//src/dev/oled_ssd130x.h ****         spi_.BlockingTransmit(buff, size);
 727              		.loc 18 130 9 view .LVU176
 130:../../libDaisy//src/dev/oled_ssd130x.h ****         spi_.BlockingTransmit(buff, size);
 728              		.loc 18 130 23 is_stmt 0 view .LVU177
 729 006a 0121     		movs	r1, #1
 730 006c 2846     		mov	r0, r5
 731 006e FFF7FEFF 		bl	dsy_gpio_write
 732              	.LVL33:
 131:../../libDaisy//src/dev/oled_ssd130x.h ****     };
 733              		.loc 18 131 9 is_stmt 1 view .LVU178
 131:../../libDaisy//src/dev/oled_ssd130x.h ****     };
 734              		.loc 18 131 30 is_stmt 0 view .LVU179
 735 0072 8022     		movs	r2, #128
 736 0074 4146     		mov	r1, r8
 737 0076 6423     		movs	r3, #100
 738 0078 3046     		mov	r0, r6
 739              	.LBE674:
 740              	.LBE673:
 741              		.loc 18 383 22 view .LVU180
 742 007a 9044     		add	r8, r8, r2
 743              	.LVL34:
 744              	.LBB676:
 745              	.LBB675:
 131:../../libDaisy//src/dev/oled_ssd130x.h ****     };
 746              		.loc 18 131 30 view .LVU181
 747 007c FFF7FEFF 		bl	_ZN5daisy9SpiHandle16BlockingTransmitEPhjm
 748              	.LVL35:
 131:../../libDaisy//src/dev/oled_ssd130x.h ****     };
 749              		.loc 18 131 30 view .LVU182
 750              	.LBE675:
 751              	.LBE676:
 752              		.loc 18 383 9 is_stmt 1 view .LVU183
 753              		.loc 18 383 22 view .LVU184
 754 0080 B82C     		cmp	r4, #184
 755 0082 C7D1     		bne	.L27
 756              	.LBE678:
 757              	.LBE680:
 758              		.loc 17 51 48 is_stmt 0 view .LVU185
 759 0084 02B0     		add	sp, sp, #8
 760              		.cfi_def_cfa_offset 24
 761              		@ sp needed
 762 0086 BDE8F081 		pop	{r4, r5, r6, r7, r8, pc}
 763              		.loc 17 51 48 view .LVU186
 764              		.cfi_endproc
ARM GAS  C:\Users\halcyon\AppData\Local\Temp\ccgaMkHw.s 			page 49


 765              	.LFE3486:
 767 008a 00BF     		.section	.text._ZN5daisy25OneBitGraphicsDisplayImplINS_11OledDisplayINS_13SSD130xDriverILj128ELj64
 768              		.align	1
 769              		.p2align 2,,3
 770              		.weak	_ZN5daisy25OneBitGraphicsDisplayImplINS_11OledDisplayINS_13SSD130xDriverILj128ELj64ENS_24SSD
 771              		.syntax unified
 772              		.thumb
 773              		.thumb_func
 774              		.fpu fpv5-d16
 776              	_ZN5daisy25OneBitGraphicsDisplayImplINS_11OledDisplayINS_13SSD130xDriverILj128ELj64ENS_24SSD130x4Wi
 777              	.LVL36:
 778              	.LFB3607:
 220:../../libDaisy//src/hid/disp/display.h **** 
 221:../../libDaisy//src/hid/disp/display.h ****     void DrawLine(uint_fast8_t x1,
 222:../../libDaisy//src/hid/disp/display.h ****                   uint_fast8_t y1,
 223:../../libDaisy//src/hid/disp/display.h ****                   uint_fast8_t x2,
 224:../../libDaisy//src/hid/disp/display.h ****                   uint_fast8_t y2,
 225:../../libDaisy//src/hid/disp/display.h ****                   bool         on) override
 226:../../libDaisy//src/hid/disp/display.h ****     {
 227:../../libDaisy//src/hid/disp/display.h ****         int_fast16_t deltaX = abs((int_fast16_t)x2 - (int_fast16_t)x1);
 228:../../libDaisy//src/hid/disp/display.h ****         int_fast16_t deltaY = abs((int_fast16_t)y2 - (int_fast16_t)y1);
 229:../../libDaisy//src/hid/disp/display.h ****         int_fast16_t signX  = ((x1 < x2) ? 1 : -1);
 230:../../libDaisy//src/hid/disp/display.h ****         int_fast16_t signY  = ((y1 < y2) ? 1 : -1);
 231:../../libDaisy//src/hid/disp/display.h ****         int_fast16_t error  = deltaX - deltaY;
 232:../../libDaisy//src/hid/disp/display.h ****         int_fast16_t error2;
 233:../../libDaisy//src/hid/disp/display.h **** 
 234:../../libDaisy//src/hid/disp/display.h ****         // If we write "ChildType::DrawPixel(x2, y2, on);", we end up with
 235:../../libDaisy//src/hid/disp/display.h ****         // all sorts of weird compiler errors when the Child class is a template
 236:../../libDaisy//src/hid/disp/display.h ****         // class. The only way around this is to use this very verbose syntax:
 237:../../libDaisy//src/hid/disp/display.h ****         ((ChildType*)(this))->ChildType::DrawPixel(x2, y2, on);
 238:../../libDaisy//src/hid/disp/display.h **** 
 239:../../libDaisy//src/hid/disp/display.h ****         while((x1 != x2) || (y1 != y2))
 240:../../libDaisy//src/hid/disp/display.h ****         {
 241:../../libDaisy//src/hid/disp/display.h ****             ((ChildType*)(this))->ChildType::DrawPixel(x1, y1, on);
 242:../../libDaisy//src/hid/disp/display.h ****             error2 = error * 2;
 243:../../libDaisy//src/hid/disp/display.h ****             if(error2 > -deltaY)
 244:../../libDaisy//src/hid/disp/display.h ****             {
 245:../../libDaisy//src/hid/disp/display.h ****                 error -= deltaY;
 246:../../libDaisy//src/hid/disp/display.h ****                 x1 += signX;
 247:../../libDaisy//src/hid/disp/display.h ****             }
 248:../../libDaisy//src/hid/disp/display.h **** 
 249:../../libDaisy//src/hid/disp/display.h ****             if(error2 < deltaX)
 250:../../libDaisy//src/hid/disp/display.h ****             {
 251:../../libDaisy//src/hid/disp/display.h ****                 error += deltaX;
 252:../../libDaisy//src/hid/disp/display.h ****                 y1 += signY;
 253:../../libDaisy//src/hid/disp/display.h ****             }
 254:../../libDaisy//src/hid/disp/display.h ****         }
 255:../../libDaisy//src/hid/disp/display.h ****     }
 256:../../libDaisy//src/hid/disp/display.h **** 
 257:../../libDaisy//src/hid/disp/display.h ****     void DrawRect(uint_fast8_t x1,
 258:../../libDaisy//src/hid/disp/display.h ****                   uint_fast8_t y1,
 259:../../libDaisy//src/hid/disp/display.h ****                   uint_fast8_t x2,
 260:../../libDaisy//src/hid/disp/display.h ****                   uint_fast8_t y2,
 261:../../libDaisy//src/hid/disp/display.h ****                   bool         on,
 262:../../libDaisy//src/hid/disp/display.h ****                   bool         fill = false) override
 263:../../libDaisy//src/hid/disp/display.h ****     {
 264:../../libDaisy//src/hid/disp/display.h ****         if(fill)
ARM GAS  C:\Users\halcyon\AppData\Local\Temp\ccgaMkHw.s 			page 50


 265:../../libDaisy//src/hid/disp/display.h ****         {
 266:../../libDaisy//src/hid/disp/display.h ****             for(uint_fast8_t x = x1; x <= x2; x++)
 267:../../libDaisy//src/hid/disp/display.h ****             {
 268:../../libDaisy//src/hid/disp/display.h ****                 for(uint_fast8_t y = y1; y <= y2; y++)
 269:../../libDaisy//src/hid/disp/display.h ****                 {
 270:../../libDaisy//src/hid/disp/display.h ****                     ((ChildType*)(this))->ChildType::DrawPixel(x, y, on);
 271:../../libDaisy//src/hid/disp/display.h ****                 }
 272:../../libDaisy//src/hid/disp/display.h ****             }
 273:../../libDaisy//src/hid/disp/display.h ****         }
 274:../../libDaisy//src/hid/disp/display.h ****         else
 275:../../libDaisy//src/hid/disp/display.h ****         {
 276:../../libDaisy//src/hid/disp/display.h ****             ((ChildType*)(this))->ChildType::DrawLine(x1, y1, x2, y1, on);
 277:../../libDaisy//src/hid/disp/display.h ****             ((ChildType*)(this))->ChildType::DrawLine(x2, y1, x2, y2, on);
 278:../../libDaisy//src/hid/disp/display.h ****             ((ChildType*)(this))->ChildType::DrawLine(x2, y2, x1, y2, on);
 279:../../libDaisy//src/hid/disp/display.h ****             ((ChildType*)(this))->ChildType::DrawLine(x1, y2, x1, y1, on);
 280:../../libDaisy//src/hid/disp/display.h ****         }
 281:../../libDaisy//src/hid/disp/display.h ****     }
 282:../../libDaisy//src/hid/disp/display.h **** 
 283:../../libDaisy//src/hid/disp/display.h ****     void DrawArc(uint_fast8_t x,
 284:../../libDaisy//src/hid/disp/display.h ****                  uint_fast8_t y,
 285:../../libDaisy//src/hid/disp/display.h ****                  uint_fast8_t radius,
 286:../../libDaisy//src/hid/disp/display.h ****                  int_fast16_t start_angle,
 287:../../libDaisy//src/hid/disp/display.h ****                  int_fast16_t sweep,
 288:../../libDaisy//src/hid/disp/display.h ****                  bool         on) override
 289:../../libDaisy//src/hid/disp/display.h ****     {
 290:../../libDaisy//src/hid/disp/display.h ****         // Values to calculate the circle
 291:../../libDaisy//src/hid/disp/display.h ****         int_fast16_t t_x, t_y, err, e2;
 292:../../libDaisy//src/hid/disp/display.h **** 
 293:../../libDaisy//src/hid/disp/display.h ****         // Temporary values to speed up comparisons
 294:../../libDaisy//src/hid/disp/display.h ****         float t_sxy, t_syx, t_sxny, t_synx;
 295:../../libDaisy//src/hid/disp/display.h ****         float t_exy, t_eyx, t_exny, t_eynx;
 296:../../libDaisy//src/hid/disp/display.h **** 
 297:../../libDaisy//src/hid/disp/display.h ****         float start_angle_rad, end_angle_rad;
 298:../../libDaisy//src/hid/disp/display.h ****         float start_x, start_y, end_x, end_y;
 299:../../libDaisy//src/hid/disp/display.h **** 
 300:../../libDaisy//src/hid/disp/display.h ****         bool d1, d2, d3, d4;
 301:../../libDaisy//src/hid/disp/display.h **** 
 302:../../libDaisy//src/hid/disp/display.h ****         d1 = d2 = d3 = d4 = true;
 303:../../libDaisy//src/hid/disp/display.h **** 
 304:../../libDaisy//src/hid/disp/display.h ****         bool circle = false;
 305:../../libDaisy//src/hid/disp/display.h **** 
 306:../../libDaisy//src/hid/disp/display.h ****         if(sweep < 0)
 307:../../libDaisy//src/hid/disp/display.h ****         {
 308:../../libDaisy//src/hid/disp/display.h ****             start_angle += sweep;
 309:../../libDaisy//src/hid/disp/display.h ****             sweep = -sweep;
 310:../../libDaisy//src/hid/disp/display.h ****         }
 311:../../libDaisy//src/hid/disp/display.h **** 
 312:../../libDaisy//src/hid/disp/display.h ****         start_angle_rad = deg2rad(start_angle);
 313:../../libDaisy//src/hid/disp/display.h ****         end_angle_rad   = deg2rad(start_angle + sweep);
 314:../../libDaisy//src/hid/disp/display.h **** 
 315:../../libDaisy//src/hid/disp/display.h ****         start_x = cos(start_angle_rad) * radius;
 316:../../libDaisy//src/hid/disp/display.h ****         start_y = -sin(start_angle_rad) * radius;
 317:../../libDaisy//src/hid/disp/display.h ****         end_x   = cos(end_angle_rad) * radius;
 318:../../libDaisy//src/hid/disp/display.h ****         end_y   = -sin(end_angle_rad) * radius;
 319:../../libDaisy//src/hid/disp/display.h **** 
 320:../../libDaisy//src/hid/disp/display.h ****         // Check if start and endpoint are very near
 321:../../libDaisy//src/hid/disp/display.h ****         if((end_x - start_x) * (end_x - start_x)
ARM GAS  C:\Users\halcyon\AppData\Local\Temp\ccgaMkHw.s 			page 51


 322:../../libDaisy//src/hid/disp/display.h ****                + (end_y - start_y) * (end_y - start_y)
 323:../../libDaisy//src/hid/disp/display.h ****            < 2.0f)
 324:../../libDaisy//src/hid/disp/display.h ****         {
 325:../../libDaisy//src/hid/disp/display.h ****             if(sweep > 180)
 326:../../libDaisy//src/hid/disp/display.h ****                 circle = true;
 327:../../libDaisy//src/hid/disp/display.h ****             else
 328:../../libDaisy//src/hid/disp/display.h ****                 // Nothing to draw
 329:../../libDaisy//src/hid/disp/display.h ****                 return;
 330:../../libDaisy//src/hid/disp/display.h ****         }
 331:../../libDaisy//src/hid/disp/display.h **** 
 332:../../libDaisy//src/hid/disp/display.h ****         t_x = -radius;
 333:../../libDaisy//src/hid/disp/display.h ****         t_y = 0;
 334:../../libDaisy//src/hid/disp/display.h ****         err = 2 - 2 * radius;
 335:../../libDaisy//src/hid/disp/display.h **** 
 336:../../libDaisy//src/hid/disp/display.h ****         do
 337:../../libDaisy//src/hid/disp/display.h ****         {
 338:../../libDaisy//src/hid/disp/display.h ****             if(!circle)
 339:../../libDaisy//src/hid/disp/display.h ****             {
 340:../../libDaisy//src/hid/disp/display.h ****                 t_sxy  = start_x * t_y;
 341:../../libDaisy//src/hid/disp/display.h ****                 t_syx  = start_y * t_x;
 342:../../libDaisy//src/hid/disp/display.h ****                 t_sxny = start_x * -t_y;
 343:../../libDaisy//src/hid/disp/display.h ****                 t_synx = start_y * -t_x;
 344:../../libDaisy//src/hid/disp/display.h ****                 t_exy  = end_x * t_y;
 345:../../libDaisy//src/hid/disp/display.h ****                 t_eyx  = end_y * t_x;
 346:../../libDaisy//src/hid/disp/display.h ****                 t_exny = end_x * -t_y;
 347:../../libDaisy//src/hid/disp/display.h ****                 t_eynx = end_y * -t_x;
 348:../../libDaisy//src/hid/disp/display.h **** 
 349:../../libDaisy//src/hid/disp/display.h ****                 if(sweep > 180)
 350:../../libDaisy//src/hid/disp/display.h ****                 {
 351:../../libDaisy//src/hid/disp/display.h ****                     d1 = (t_sxy - t_synx < 0 || t_exy - t_eynx > 0);
 352:../../libDaisy//src/hid/disp/display.h ****                     d2 = (t_sxy - t_syx < 0 || t_exy - t_eyx > 0);
 353:../../libDaisy//src/hid/disp/display.h ****                     d3 = (t_sxny - t_syx < 0 || t_exny - t_eyx > 0);
 354:../../libDaisy//src/hid/disp/display.h ****                     d4 = (t_sxny - t_synx < 0 || t_exny - t_eynx > 0);
 355:../../libDaisy//src/hid/disp/display.h ****                 }
 356:../../libDaisy//src/hid/disp/display.h ****                 else
 357:../../libDaisy//src/hid/disp/display.h ****                 {
 358:../../libDaisy//src/hid/disp/display.h ****                     d1 = (t_sxy - t_synx < 0 && t_exy - t_eynx > 0);
 359:../../libDaisy//src/hid/disp/display.h ****                     d2 = (t_sxy - t_syx < 0 && t_exy - t_eyx > 0);
 360:../../libDaisy//src/hid/disp/display.h ****                     d3 = (t_sxny - t_syx < 0 && t_exny - t_eyx > 0);
 361:../../libDaisy//src/hid/disp/display.h ****                     d4 = (t_sxny - t_synx < 0 && t_exny - t_eynx > 0);
 362:../../libDaisy//src/hid/disp/display.h ****                 }
 363:../../libDaisy//src/hid/disp/display.h ****             }
 364:../../libDaisy//src/hid/disp/display.h **** 
 365:../../libDaisy//src/hid/disp/display.h ****             if(d1)
 366:../../libDaisy//src/hid/disp/display.h ****                 ((ChildType*)(this))
 367:../../libDaisy//src/hid/disp/display.h ****                     ->ChildType::DrawPixel(x - t_x, y + t_y, on);
 368:../../libDaisy//src/hid/disp/display.h ****             if(d2)
 369:../../libDaisy//src/hid/disp/display.h ****                 ((ChildType*)(this))
 370:../../libDaisy//src/hid/disp/display.h ****                     ->ChildType::DrawPixel(x + t_x, y + t_y, on);
 371:../../libDaisy//src/hid/disp/display.h ****             if(d3)
 372:../../libDaisy//src/hid/disp/display.h ****                 ((ChildType*)(this))
 373:../../libDaisy//src/hid/disp/display.h ****                     ->ChildType::DrawPixel(x + t_x, y - t_y, on);
 374:../../libDaisy//src/hid/disp/display.h ****             if(d4)
 375:../../libDaisy//src/hid/disp/display.h ****                 ((ChildType*)(this))
 376:../../libDaisy//src/hid/disp/display.h ****                     ->ChildType::DrawPixel(x - t_x, y - t_y, on);
 377:../../libDaisy//src/hid/disp/display.h **** 
 378:../../libDaisy//src/hid/disp/display.h ****             e2 = err;
ARM GAS  C:\Users\halcyon\AppData\Local\Temp\ccgaMkHw.s 			page 52


 379:../../libDaisy//src/hid/disp/display.h ****             if(e2 <= t_y)
 380:../../libDaisy//src/hid/disp/display.h ****             {
 381:../../libDaisy//src/hid/disp/display.h ****                 t_y++;
 382:../../libDaisy//src/hid/disp/display.h ****                 err = err + (t_y * 2 + 1);
 383:../../libDaisy//src/hid/disp/display.h ****                 if(-t_x == t_y && e2 <= t_x)
 384:../../libDaisy//src/hid/disp/display.h ****                 {
 385:../../libDaisy//src/hid/disp/display.h ****                     e2 = 0;
 386:../../libDaisy//src/hid/disp/display.h ****                 }
 387:../../libDaisy//src/hid/disp/display.h ****             }
 388:../../libDaisy//src/hid/disp/display.h ****             if(e2 > t_x)
 389:../../libDaisy//src/hid/disp/display.h ****             {
 390:../../libDaisy//src/hid/disp/display.h ****                 t_x++;
 391:../../libDaisy//src/hid/disp/display.h ****                 err = err + (t_x * 2 + 1);
 392:../../libDaisy//src/hid/disp/display.h ****             }
 393:../../libDaisy//src/hid/disp/display.h ****         } while(t_x <= 0);
 394:../../libDaisy//src/hid/disp/display.h ****     }
 395:../../libDaisy//src/hid/disp/display.h **** 
 396:../../libDaisy//src/hid/disp/display.h ****     char WriteChar(char ch, FontDef font, bool on) override
 779              		.loc 19 396 10 is_stmt 1 view -0
 780              		.cfi_startproc
 781              		@ args = 4, pretend = 0, frame = 16
 782              		@ frame_needed = 0, uses_anonymous_args = 0
 783              		.loc 19 396 10 is_stmt 0 view .LVU188
 784 0000 2DE9F04F 		push	{r4, r5, r6, r7, r8, r9, r10, fp, lr}
 785              		.cfi_def_cfa_offset 36
 786              		.cfi_offset 4, -36
 787              		.cfi_offset 5, -32
 788              		.cfi_offset 6, -28
 789              		.cfi_offset 7, -24
 790              		.cfi_offset 8, -20
 791              		.cfi_offset 9, -16
 792              		.cfi_offset 10, -12
 793              		.cfi_offset 11, -8
 794              		.cfi_offset 14, -4
 795 0004 85B0     		sub	sp, sp, #20
 796              		.cfi_def_cfa_offset 56
 797              	.LVL37:
 397:../../libDaisy//src/hid/disp/display.h ****     {
 398:../../libDaisy//src/hid/disp/display.h ****         uint32_t i, b, j;
 399:../../libDaisy//src/hid/disp/display.h **** 
 400:../../libDaisy//src/hid/disp/display.h ****         // Check if character is valid
 401:../../libDaisy//src/hid/disp/display.h ****         if(ch < 32 || ch > 126)
 798              		.loc 19 401 20 view .LVU189
 799 0006 A1F12005 		sub	r5, r1, #32
 396:../../libDaisy//src/hid/disp/display.h ****     {
 800              		.loc 19 396 10 view .LVU190
 801 000a 04AC     		add	r4, sp, #16
 802 000c 9DF83870 		ldrb	r7, [sp, #56]	@ zero_extendqisi2
 803 0010 0091     		str	r1, [sp]
 804 0012 04E90C00 		stmdb	r4, {r2, r3}
 805              	.LVL38:
 806              		.loc 19 401 9 view .LVU191
 807 0016 EBB2     		uxtb	r3, r5
 808 0018 5E2B     		cmp	r3, #94
 809 001a 00F29580 		bhi	.L34
 402:../../libDaisy//src/hid/disp/display.h ****             return 0;
 403:../../libDaisy//src/hid/disp/display.h **** 
ARM GAS  C:\Users\halcyon\AppData\Local\Temp\ccgaMkHw.s 			page 53


 404:../../libDaisy//src/hid/disp/display.h ****         // Check remaining space on current line
 405:../../libDaisy//src/hid/disp/display.h ****         if(Width() < (currentX_ + font.FontWidth)
 810              		.loc 19 405 17 view .LVU192
 811 001e 0368     		ldr	r3, [r0]
 812 0020 8046     		mov	r8, r0
 813 0022 5D4A     		ldr	r2, .L69
 814 0024 DB68     		ldr	r3, [r3, #12]
 815 0026 9DF80840 		ldrb	r4, [sp, #8]	@ zero_extendqisi2
 816 002a 9342     		cmp	r3, r2
 817 002c 9DF80960 		ldrb	r6, [sp, #9]	@ zero_extendqisi2
 818 0030 40F09480 		bne	.L61
 819 0034 8020     		movs	r0, #128
 820              	.LVL39:
 821              	.L33:
 822              		.loc 19 405 23 view .LVU193
 823 0036 B8F80430 		ldrh	r3, [r8, #4]
 824              		.loc 19 405 33 view .LVU194
 825 003a 2344     		add	r3, r3, r4
 406:../../libDaisy//src/hid/disp/display.h ****            || Height() < (currentY_ + font.FontHeight))
 826              		.loc 19 406 12 view .LVU195
 827 003c 8342     		cmp	r3, r0
 828 003e 00F38380 		bgt	.L34
 829              		.loc 19 406 21 discriminator 2 view .LVU196
 830 0042 D8F80030 		ldr	r3, [r8]
 831 0046 554A     		ldr	r2, .L69+4
 832 0048 9B68     		ldr	r3, [r3, #8]
 833 004a 9342     		cmp	r3, r2
 834 004c 40F08880 		bne	.L62
 835              		.loc 19 406 21 view .LVU197
 836 0050 4020     		movs	r0, #64
 837              	.L35:
 838              		.loc 19 406 27 discriminator 2 view .LVU198
 839 0052 B8F80620 		ldrh	r2, [r8, #6]
 840              		.loc 19 406 37 discriminator 2 view .LVU199
 841 0056 9319     		adds	r3, r2, r6
 842              		.loc 19 406 27 discriminator 2 view .LVU200
 843 0058 0192     		str	r2, [sp, #4]
 844              		.loc 19 406 12 discriminator 2 view .LVU201
 845 005a 8342     		cmp	r3, r0
 846 005c 74DC     		bgt	.L34
 847              	.LVL40:
 407:../../libDaisy//src/hid/disp/display.h ****         {
 408:../../libDaisy//src/hid/disp/display.h ****             // Not enough space on current line
 409:../../libDaisy//src/hid/disp/display.h ****             return 0;
 410:../../libDaisy//src/hid/disp/display.h ****         }
 411:../../libDaisy//src/hid/disp/display.h **** 
 412:../../libDaisy//src/hid/disp/display.h ****         // Use the font to write
 413:../../libDaisy//src/hid/disp/display.h ****         for(i = 0; i < font.FontHeight; i++)
 848              		.loc 19 413 22 is_stmt 1 view .LVU202
 849 005e 002E     		cmp	r6, #0
 850 0060 00F08980 		beq	.L36
 414:../../libDaisy//src/hid/disp/display.h ****         {
 415:../../libDaisy//src/hid/disp/display.h ****             b = font.data[(ch - 32) * font.FontHeight + i];
 851              		.loc 19 415 37 is_stmt 0 view .LVU203
 852 0064 06FB05F5 		mul	r5, r6, r5
 853 0068 6FF00040 		mvn	r0, #-2147483648
 854              		.loc 19 415 22 view .LVU204
ARM GAS  C:\Users\halcyon\AppData\Local\Temp\ccgaMkHw.s 			page 54


 855 006c 039B     		ldr	r3, [sp, #12]
 856 006e 9646     		mov	lr, r2
 857 0070 2844     		add	r0, r0, r5
 858 0072 2E44     		add	r6, r6, r5
 416:../../libDaisy//src/hid/disp/display.h ****             for(j = 0; j < font.FontWidth; j++)
 417:../../libDaisy//src/hid/disp/display.h ****             {
 418:../../libDaisy//src/hid/disp/display.h ****                 if((b << j) & 0x8000)
 419:../../libDaisy//src/hid/disp/display.h ****                 {
 420:../../libDaisy//src/hid/disp/display.h ****                     ((ChildType*)(this))
 421:../../libDaisy//src/hid/disp/display.h ****                         ->ChildType::DrawPixel(
 422:../../libDaisy//src/hid/disp/display.h ****                             currentX_ + j, (currentY_ + i), on);
 423:../../libDaisy//src/hid/disp/display.h ****                 }
 424:../../libDaisy//src/hid/disp/display.h ****                 else
 425:../../libDaisy//src/hid/disp/display.h ****                 {
 426:../../libDaisy//src/hid/disp/display.h ****                     ((ChildType*)(this))
 427:../../libDaisy//src/hid/disp/display.h ****                         ->ChildType::DrawPixel(
 428:../../libDaisy//src/hid/disp/display.h ****                             currentX_ + j, (currentY_ + i), !on);
 429:../../libDaisy//src/hid/disp/display.h ****                 }
 430:../../libDaisy//src/hid/disp/display.h ****             }
 431:../../libDaisy//src/hid/disp/display.h ****         }
 432:../../libDaisy//src/hid/disp/display.h **** 
 433:../../libDaisy//src/hid/disp/display.h ****         // The current space is now taken
 434:../../libDaisy//src/hid/disp/display.h ****         SetCursor(currentX_ + font.FontWidth, currentY_);
 859              		.loc 19 434 19 view .LVU205
 860 0074 B8F804A0 		ldrh	r10, [r8, #4]
 861 0078 03EB4000 		add	r0, r3, r0, lsl #1
 862 007c 023B     		subs	r3, r3, #2
 863 007e 03EB460B 		add	fp, r3, r6, lsl #1
 864              	.LVL41:
 865              	.L39:
 415:../../libDaisy//src/hid/disp/display.h ****             for(j = 0; j < font.FontWidth; j++)
 866              		.loc 19 415 15 view .LVU206
 867 0082 30F8026F 		ldrh	r6, [r0, #2]!
 868              	.LVL42:
 416:../../libDaisy//src/hid/disp/display.h ****             for(j = 0; j < font.FontWidth; j++)
 869              		.loc 19 416 26 is_stmt 1 view .LVU207
 870 0086 BCB3     		cbz	r4, .L44
 871              	.LBB711:
 872              	.LBB712:
 873              	.LBB713:
 874              	.LBB714:
 875              	.LBB715:
 359:../../libDaisy//src/dev/oled_ssd130x.h ****     }
 876              		.loc 18 359 55 is_stmt 0 view .LVU208
 877 0088 0EF00703 		and	r3, lr, #7
 359:../../libDaisy//src/dev/oled_ssd130x.h ****     }
 878              		.loc 18 359 49 view .LVU209
 879 008c 4FF0010C 		mov	ip, #1
 359:../../libDaisy//src/dev/oled_ssd130x.h ****     }
 880              		.loc 18 359 28 view .LVU210
 881 0090 4FEADE02 		lsr	r2, lr, #3
 882 0094 5146     		mov	r1, r10
 359:../../libDaisy//src/dev/oled_ssd130x.h ****     }
 883              		.loc 18 359 49 view .LVU211
 884 0096 0CFA03FC 		lsl	ip, ip, r3
 885 009a 0AF11403 		add	r3, r10, #20
 359:../../libDaisy//src/dev/oled_ssd130x.h ****     }
ARM GAS  C:\Users\halcyon\AppData\Local\Temp\ccgaMkHw.s 			page 55


 886              		.loc 18 359 42 view .LVU212
 887 009e 4FFA8CFC 		sxtb	ip, ip
 888 00a2 03EBC212 		add	r2, r3, r2, lsl #7
 889              	.LBE715:
 890              	.LBE714:
 891              	.LBE713:
 892              	.LBE712:
 893              	.LBE711:
 416:../../libDaisy//src/hid/disp/display.h ****             for(j = 0; j < font.FontWidth; j++)
 894              		.loc 19 416 19 view .LVU213
 895 00a6 0023     		movs	r3, #0
 896              	.LBB733:
 897              	.LBB728:
 898              	.LBB723:
 899              	.LBB719:
 900              	.LBB716:
 359:../../libDaisy//src/dev/oled_ssd130x.h ****     }
 901              		.loc 18 359 42 view .LVU214
 902 00a8 6FEA0C09 		mvn	r9, ip
 903 00ac 4244     		add	r2, r2, r8
 904 00ae 0EE0     		b	.L45
 905              	.LVL43:
 906              	.L63:
 359:../../libDaisy//src/dev/oled_ssd130x.h ****     }
 907              		.loc 18 359 42 view .LVU215
 908              	.LBE716:
 909              	.LBE719:
 910              	.LBE723:
 911              	.LBE728:
 912              	.LBE733:
 913              	.LBB734:
 914              	.LBI734:
  42:../../libDaisy//src/hid/disp/oled_display.h ****     {
 915              		.loc 17 42 10 is_stmt 1 view .LVU216
 916              	.LBB735:
 917              	.LBI735:
 352:../../libDaisy//src/dev/oled_ssd130x.h ****     {
 918              		.loc 18 352 10 view .LVU217
 919              	.LBB736:
 354:../../libDaisy//src/dev/oled_ssd130x.h ****             return;
 920              		.loc 18 354 9 is_stmt 0 view .LVU218
 921 00b0 7F29     		cmp	r1, #127
 922 00b2 07D8     		bhi	.L41
 923 00b4 BEF13F0F 		cmp	lr, #63
 924 00b8 04D8     		bhi	.L41
 357:../../libDaisy//src/dev/oled_ssd130x.h ****         else
 925              		.loc 18 357 42 view .LVU219
 926 00ba 1578     		ldrb	r5, [r2]	@ zero_extendqisi2
 356:../../libDaisy//src/dev/oled_ssd130x.h ****             buffer_[x + (y / 8) * width] |= (1 << (y % 8));
 927              		.loc 18 356 9 view .LVU220
 928 00bc 9FB1     		cbz	r7, .L43
 929              	.L60:
 356:../../libDaisy//src/dev/oled_ssd130x.h ****             buffer_[x + (y / 8) * width] |= (1 << (y % 8));
 930              		.loc 18 356 9 view .LVU221
 931              	.LBE736:
 932              	.LBE735:
 933              	.LBE734:
ARM GAS  C:\Users\halcyon\AppData\Local\Temp\ccgaMkHw.s 			page 56


 934              	.LBB737:
 935              	.LBB729:
 936              	.LBB724:
 357:../../libDaisy//src/dev/oled_ssd130x.h ****         else
 937              		.loc 18 357 42 view .LVU222
 938 00be 4CEA0505 		orr	r5, ip, r5
 939 00c2 1570     		strb	r5, [r2]
 940              	.L41:
 941              	.LBE724:
 942              	.LBE729:
 943              	.LBE737:
 416:../../libDaisy//src/hid/disp/display.h ****             {
 944              		.loc 19 416 13 is_stmt 1 discriminator 2 view .LVU223
 945 00c4 0133     		adds	r3, r3, #1
 946              	.LVL44:
 416:../../libDaisy//src/hid/disp/display.h ****             {
 947              		.loc 19 416 26 discriminator 2 view .LVU224
 948 00c6 0132     		adds	r2, r2, #1
 949 00c8 0131     		adds	r1, r1, #1
 950 00ca 9C42     		cmp	r4, r3
 951 00cc 14D0     		beq	.L44
 952              	.LVL45:
 953              	.L45:
 418:../../libDaisy//src/hid/disp/display.h ****                 {
 954              		.loc 19 418 23 is_stmt 0 view .LVU225
 955 00ce 06FA03F5 		lsl	r5, r6, r3
 418:../../libDaisy//src/hid/disp/display.h ****                 {
 956              		.loc 19 418 17 view .LVU226
 957 00d2 2D04     		lsls	r5, r5, #16
 958 00d4 ECD4     		bmi	.L63
 959              	.LVL46:
 960              	.LBB738:
 961              	.LBI711:
  42:../../libDaisy//src/hid/disp/oled_display.h ****     {
 962              		.loc 17 42 10 is_stmt 1 view .LVU227
 963              	.LBB730:
 964              	.LBI712:
 352:../../libDaisy//src/dev/oled_ssd130x.h ****     {
 965              		.loc 18 352 10 view .LVU228
 966              	.LBB725:
 354:../../libDaisy//src/dev/oled_ssd130x.h ****             return;
 967              		.loc 18 354 9 is_stmt 0 view .LVU229
 968 00d6 7F29     		cmp	r1, #127
 969 00d8 F4D8     		bhi	.L41
 970 00da BEF13F0F 		cmp	lr, #63
 971 00de F1D8     		bhi	.L41
 357:../../libDaisy//src/dev/oled_ssd130x.h ****         else
 972              		.loc 18 357 42 view .LVU230
 973 00e0 1578     		ldrb	r5, [r2]	@ zero_extendqisi2
 356:../../libDaisy//src/dev/oled_ssd130x.h ****             buffer_[x + (y / 8) * width] |= (1 << (y % 8));
 974              		.loc 18 356 9 view .LVU231
 975 00e2 002F     		cmp	r7, #0
 976 00e4 EBD0     		beq	.L60
 977              	.L43:
 978              	.LVL47:
 979              	.LBB720:
 980              	.LBI714:
ARM GAS  C:\Users\halcyon\AppData\Local\Temp\ccgaMkHw.s 			page 57


 352:../../libDaisy//src/dev/oled_ssd130x.h ****     {
 981              		.loc 18 352 10 is_stmt 1 view .LVU232
 352:../../libDaisy//src/dev/oled_ssd130x.h ****     {
 982              		.loc 18 352 10 is_stmt 0 view .LVU233
 983              	.LBE720:
 984              	.LBE725:
 985              	.LBE730:
 986              	.LBE738:
 416:../../libDaisy//src/hid/disp/display.h ****             {
 987              		.loc 19 416 13 view .LVU234
 988 00e6 0133     		adds	r3, r3, #1
 989              	.LVL48:
 990              	.LBB739:
 991              	.LBB731:
 992              	.LBB726:
 993              	.LBB721:
 994              	.LBB717:
 359:../../libDaisy//src/dev/oled_ssd130x.h ****     }
 995              		.loc 18 359 42 view .LVU235
 996 00e8 09EA0505 		and	r5, r9, r5
 997              	.LBE717:
 998              	.LBE721:
 999              	.LBE726:
 1000              	.LBE731:
 1001              	.LBE739:
 416:../../libDaisy//src/hid/disp/display.h ****             {
 1002              		.loc 19 416 26 view .LVU236
 1003 00ec 0132     		adds	r2, r2, #1
 1004 00ee 0131     		adds	r1, r1, #1
 1005 00f0 9C42     		cmp	r4, r3
 1006              	.LBB740:
 1007              	.LBB732:
 1008              	.LBB727:
 1009              	.LBB722:
 1010              	.LBB718:
 359:../../libDaisy//src/dev/oled_ssd130x.h ****     }
 1011              		.loc 18 359 42 view .LVU237
 1012 00f2 02F8015C 		strb	r5, [r2, #-1]
 359:../../libDaisy//src/dev/oled_ssd130x.h ****     }
 1013              		.loc 18 359 42 view .LVU238
 1014              	.LBE718:
 1015              	.LBE722:
 1016              	.LBE727:
 1017              	.LBE732:
 1018              	.LBE740:
 416:../../libDaisy//src/hid/disp/display.h ****             {
 1019              		.loc 19 416 13 is_stmt 1 view .LVU239
 1020              	.LVL49:
 416:../../libDaisy//src/hid/disp/display.h ****             {
 1021              		.loc 19 416 26 view .LVU240
 1022 00f6 EAD1     		bne	.L45
 1023              	.LVL50:
 1024              	.L44:
 413:../../libDaisy//src/hid/disp/display.h ****         {
 1025              		.loc 19 413 9 view .LVU241
 413:../../libDaisy//src/hid/disp/display.h ****         {
 1026              		.loc 19 413 22 view .LVU242
ARM GAS  C:\Users\halcyon\AppData\Local\Temp\ccgaMkHw.s 			page 58


 1027 00f8 5845     		cmp	r0, fp
 1028 00fa 0EF1010E 		add	lr, lr, #1
 1029 00fe C0D1     		bne	.L39
 1030              	.LVL51:
 1031              	.L38:
 1032              	.LBB741:
 1033              	.LBB742:
 173:../../libDaisy//src/hid/disp/display.h ****         currentY_ = (y >= Height()) ? Height() - 1 : y;
 1034              		.loc 19 173 33 is_stmt 0 view .LVU243
 1035 0100 D8F80030 		ldr	r3, [r8]
 1036              	.LBE742:
 1037              	.LBE741:
 1038              		.loc 19 434 18 view .LVU244
 1039 0104 5444     		add	r4, r4, r10
 1040 0106 2449     		ldr	r1, .L69
 1041              	.LBB748:
 1042              	.LBB743:
 173:../../libDaisy//src/hid/disp/display.h ****         currentY_ = (y >= Height()) ? Height() - 1 : y;
 1043              		.loc 19 173 33 view .LVU245
 1044 0108 DA68     		ldr	r2, [r3, #12]
 1045              	.LBE743:
 1046              	.LBE748:
 1047              		.loc 19 434 18 view .LVU246
 1048 010a A4B2     		uxth	r4, r4
 1049              	.LVL52:
 1050              	.LBB749:
 1051              	.LBI741:
 171:../../libDaisy//src/hid/disp/display.h ****     {
 1052              		.loc 19 171 10 is_stmt 1 view .LVU247
 1053              	.LBB744:
 173:../../libDaisy//src/hid/disp/display.h ****         currentY_ = (y >= Height()) ? Height() - 1 : y;
 1054              		.loc 19 173 9 view .LVU248
 1055 010c 8A42     		cmp	r2, r1
 1056 010e 2DD1     		bne	.L64
 173:../../libDaisy//src/hid/disp/display.h ****         currentY_ = (y >= Height()) ? Height() - 1 : y;
 1057              		.loc 19 173 33 is_stmt 0 view .LVU249
 1058 0110 8020     		movs	r0, #128
 1059              	.L46:
 173:../../libDaisy//src/hid/disp/display.h ****         currentY_ = (y >= Height()) ? Height() - 1 : y;
 1060              		.loc 19 173 19 view .LVU250
 1061 0112 8442     		cmp	r4, r0
 1062 0114 1CD2     		bcs	.L65
 1063              	.LVL53:
 1064              	.L47:
 174:../../libDaisy//src/hid/disp/display.h ****     }
 1065              		.loc 19 174 34 view .LVU251
 1066 0116 9B68     		ldr	r3, [r3, #8]
 1067 0118 204A     		ldr	r2, .L69+4
 173:../../libDaisy//src/hid/disp/display.h ****         currentY_ = (y >= Height()) ? Height() - 1 : y;
 1068              		.loc 19 173 19 view .LVU252
 1069 011a A8F80440 		strh	r4, [r8, #4]	@ movhi
 174:../../libDaisy//src/hid/disp/display.h ****     }
 1070              		.loc 19 174 9 is_stmt 1 view .LVU253
 1071 011e 9342     		cmp	r3, r2
 1072 0120 21D1     		bne	.L66
 174:../../libDaisy//src/hid/disp/display.h ****     }
 1073              		.loc 19 174 34 is_stmt 0 view .LVU254
ARM GAS  C:\Users\halcyon\AppData\Local\Temp\ccgaMkHw.s 			page 59


 1074 0122 4020     		movs	r0, #64
 1075              	.L49:
 174:../../libDaisy//src/hid/disp/display.h ****     }
 1076              		.loc 19 174 19 view .LVU255
 1077 0124 019B     		ldr	r3, [sp, #4]
 1078 0126 8342     		cmp	r3, r0
 1079 0128 07D3     		bcc	.L50
 174:../../libDaisy//src/hid/disp/display.h ****     }
 1080              		.loc 19 174 46 view .LVU256
 1081 012a D8F80030 		ldr	r3, [r8]
 1082 012e 1B4A     		ldr	r2, .L69+4
 1083 0130 9B68     		ldr	r3, [r3, #8]
 1084 0132 9342     		cmp	r3, r2
 1085 0134 29D1     		bne	.L67
 1086 0136 3F23     		movs	r3, #63
 1087 0138 0193     		str	r3, [sp, #4]
 1088              	.LVL54:
 1089              	.L50:
 174:../../libDaisy//src/hid/disp/display.h ****     }
 1090              		.loc 19 174 19 view .LVU257
 1091 013a DDE90003 		ldrd	r0, r3, [sp]
 1092 013e A8F80630 		strh	r3, [r8, #6]	@ movhi
 1093              	.LVL55:
 174:../../libDaisy//src/hid/disp/display.h ****     }
 1094              		.loc 19 174 19 view .LVU258
 1095              	.LBE744:
 1096              	.LBE749:
 435:../../libDaisy//src/hid/disp/display.h **** 
 436:../../libDaisy//src/hid/disp/display.h ****         // Return written char for validation
 437:../../libDaisy//src/hid/disp/display.h ****         return ch;
 438:../../libDaisy//src/hid/disp/display.h ****     }
 1097              		.loc 19 438 5 view .LVU259
 1098 0142 05B0     		add	sp, sp, #20
 1099              		.cfi_remember_state
 1100              		.cfi_def_cfa_offset 36
 1101              		@ sp needed
 1102 0144 BDE8F08F 		pop	{r4, r5, r6, r7, r8, r9, r10, fp, pc}
 1103              	.LVL56:
 1104              	.L34:
 1105              		.cfi_restore_state
 402:../../libDaisy//src/hid/disp/display.h **** 
 1106              		.loc 19 402 20 view .LVU260
 1107 0148 0020     		movs	r0, #0
 1108              		.loc 19 438 5 view .LVU261
 1109 014a 05B0     		add	sp, sp, #20
 1110              		.cfi_remember_state
 1111              		.cfi_def_cfa_offset 36
 1112              		@ sp needed
 1113 014c BDE8F08F 		pop	{r4, r5, r6, r7, r8, r9, r10, fp, pc}
 1114              	.LVL57:
 1115              	.L65:
 1116              		.cfi_restore_state
 1117              	.LBB750:
 1118              	.LBB745:
 173:../../libDaisy//src/hid/disp/display.h ****         currentY_ = (y >= Height()) ? Height() - 1 : y;
 1119              		.loc 19 173 44 view .LVU262
 1120 0150 DA68     		ldr	r2, [r3, #12]
ARM GAS  C:\Users\halcyon\AppData\Local\Temp\ccgaMkHw.s 			page 60


 1121 0152 1149     		ldr	r1, .L69
 1122 0154 8A42     		cmp	r2, r1
 1123 0156 11D1     		bne	.L68
 1124 0158 7F24     		movs	r4, #127
 1125              	.LVL58:
 173:../../libDaisy//src/hid/disp/display.h ****         currentY_ = (y >= Height()) ? Height() - 1 : y;
 1126              		.loc 19 173 44 view .LVU263
 1127 015a DCE7     		b	.L47
 1128              	.LVL59:
 1129              	.L61:
 173:../../libDaisy//src/hid/disp/display.h ****         currentY_ = (y >= Height()) ? Height() - 1 : y;
 1130              		.loc 19 173 44 view .LVU264
 1131              	.LBE745:
 1132              	.LBE750:
 405:../../libDaisy//src/hid/disp/display.h ****            || Height() < (currentY_ + font.FontHeight))
 1133              		.loc 19 405 17 view .LVU265
 1134 015c 9847     		blx	r3
 1135              	.LVL60:
 405:../../libDaisy//src/hid/disp/display.h ****            || Height() < (currentY_ + font.FontHeight))
 1136              		.loc 19 405 17 view .LVU266
 1137 015e 6AE7     		b	.L33
 1138              	.L62:
 406:../../libDaisy//src/hid/disp/display.h ****         {
 1139              		.loc 19 406 21 discriminator 2 view .LVU267
 1140 0160 4046     		mov	r0, r8
 1141 0162 9847     		blx	r3
 1142              	.LVL61:
 1143 0164 75E7     		b	.L35
 1144              	.LVL62:
 1145              	.L66:
 1146              	.LBB751:
 1147              	.LBB746:
 174:../../libDaisy//src/hid/disp/display.h ****     }
 1148              		.loc 19 174 33 view .LVU268
 1149 0166 4046     		mov	r0, r8
 1150 0168 9847     		blx	r3
 1151              	.LVL63:
 1152 016a DBE7     		b	.L49
 1153              	.LVL64:
 1154              	.L64:
 173:../../libDaisy//src/hid/disp/display.h ****         currentY_ = (y >= Height()) ? Height() - 1 : y;
 1155              		.loc 19 173 32 view .LVU269
 1156 016c 4046     		mov	r0, r8
 1157 016e 9047     		blx	r2
 1158              	.LVL65:
 173:../../libDaisy//src/hid/disp/display.h ****         currentY_ = (y >= Height()) ? Height() - 1 : y;
 1159              		.loc 19 173 44 view .LVU270
 1160 0170 D8F80030 		ldr	r3, [r8]
 1161 0174 CDE7     		b	.L46
 1162              	.LVL66:
 1163              	.L36:
 173:../../libDaisy//src/hid/disp/display.h ****         currentY_ = (y >= Height()) ? Height() - 1 : y;
 1164              		.loc 19 173 44 view .LVU271
 1165              	.LBE746:
 1166              	.LBE751:
 434:../../libDaisy//src/hid/disp/display.h **** 
 1167              		.loc 19 434 19 view .LVU272
ARM GAS  C:\Users\halcyon\AppData\Local\Temp\ccgaMkHw.s 			page 61


 1168 0176 B8F804A0 		ldrh	r10, [r8, #4]
 1169 017a C1E7     		b	.L38
 1170              	.LVL67:
 1171              	.L68:
 1172              	.LBB752:
 1173              	.LBB747:
 173:../../libDaisy//src/hid/disp/display.h ****         currentY_ = (y >= Height()) ? Height() - 1 : y;
 1174              		.loc 19 173 43 view .LVU273
 1175 017c 4046     		mov	r0, r8
 1176 017e 9047     		blx	r2
 1177              	.LVL68:
 173:../../libDaisy//src/hid/disp/display.h ****         currentY_ = (y >= Height()) ? Height() - 1 : y;
 1178              		.loc 19 173 19 view .LVU274
 1179 0180 0138     		subs	r0, r0, #1
 174:../../libDaisy//src/hid/disp/display.h ****     }
 1180              		.loc 19 174 34 view .LVU275
 1181 0182 D8F80030 		ldr	r3, [r8]
 173:../../libDaisy//src/hid/disp/display.h ****         currentY_ = (y >= Height()) ? Height() - 1 : y;
 1182              		.loc 19 173 19 view .LVU276
 1183 0186 84B2     		uxth	r4, r0
 1184              	.LVL69:
 173:../../libDaisy//src/hid/disp/display.h ****         currentY_ = (y >= Height()) ? Height() - 1 : y;
 1185              		.loc 19 173 19 view .LVU277
 1186 0188 C5E7     		b	.L47
 1187              	.L67:
 174:../../libDaisy//src/hid/disp/display.h ****     }
 1188              		.loc 19 174 45 view .LVU278
 1189 018a 4046     		mov	r0, r8
 1190 018c 9847     		blx	r3
 1191              	.LVL70:
 174:../../libDaisy//src/hid/disp/display.h ****     }
 1192              		.loc 19 174 19 view .LVU279
 1193 018e 0138     		subs	r0, r0, #1
 1194 0190 83B2     		uxth	r3, r0
 1195 0192 0193     		str	r3, [sp, #4]
 1196              	.LVL71:
 174:../../libDaisy//src/hid/disp/display.h ****     }
 1197              		.loc 19 174 19 view .LVU280
 1198 0194 D1E7     		b	.L50
 1199              	.L70:
 1200 0196 00BF     		.align	2
 1201              	.L69:
 1202 0198 00000000 		.word	_ZNK5daisy11OledDisplayINS_13SSD130xDriverILj128ELj64ENS_24SSD130x4WireSpiTransportEEEE5Widt
 1203 019c 00000000 		.word	_ZNK5daisy11OledDisplayINS_13SSD130xDriverILj128ELj64ENS_24SSD130x4WireSpiTransportEEEE6Heig
 1204              	.LBE747:
 1205              	.LBE752:
 1206              		.cfi_endproc
 1207              	.LFE3607:
 1209              		.section	.text._ZN5daisy11OledDisplayINS_13SSD130xDriverILj128ELj64ENS_24SSD130x4WireSpiTransportE
 1210              		.align	1
 1211              		.p2align 2,,3
 1212              		.weak	_ZN5daisy11OledDisplayINS_13SSD130xDriverILj128ELj64ENS_24SSD130x4WireSpiTransportEEEE9DrawP
 1213              		.syntax unified
 1214              		.thumb
 1215              		.thumb_func
 1216              		.fpu fpv5-d16
 1218              	_ZN5daisy11OledDisplayINS_13SSD130xDriverILj128ELj64ENS_24SSD130x4WireSpiTransportEEEE9DrawPixelEjj
ARM GAS  C:\Users\halcyon\AppData\Local\Temp\ccgaMkHw.s 			page 62


 1219              	.LVL72:
 1220              	.LFB3605:
  42:../../libDaisy//src/hid/disp/oled_display.h ****     {
 1221              		.loc 17 42 10 is_stmt 1 view -0
 1222              		.cfi_startproc
 1223              		@ args = 0, pretend = 0, frame = 0
 1224              		@ frame_needed = 0, uses_anonymous_args = 0
 1225              		@ link register save eliminated.
 1226              	.LBB757:
 1227              	.LBI757:
 352:../../libDaisy//src/dev/oled_ssd130x.h ****     {
 1228              		.loc 18 352 10 view .LVU282
 1229              	.LBB758:
 354:../../libDaisy//src/dev/oled_ssd130x.h ****             return;
 1230              		.loc 18 354 9 is_stmt 0 view .LVU283
 1231 0000 7F29     		cmp	r1, #127
 1232 0002 1ED8     		bhi	.L71
 1233 0004 3F2A     		cmp	r2, #63
 1234 0006 1CD8     		bhi	.L71
 356:../../libDaisy//src/dev/oled_ssd130x.h ****             buffer_[x + (y / 8) * width] |= (1 << (y % 8));
 1235              		.loc 18 356 9 view .LVU284
 1236 0008 6BB1     		cbz	r3, .L73
 357:../../libDaisy//src/dev/oled_ssd130x.h ****         else
 1237              		.loc 18 357 28 view .LVU285
 1238 000a D308     		lsrs	r3, r2, #3
 1239              	.LVL73:
 357:../../libDaisy//src/dev/oled_ssd130x.h ****         else
 1240              		.loc 18 357 48 view .LVU286
 1241 000c 4FF0010C 		mov	ip, #1
 357:../../libDaisy//src/dev/oled_ssd130x.h ****         else
 1242              		.loc 18 357 54 view .LVU287
 1243 0010 02F00702 		and	r2, r2, #7
 1244              	.LVL74:
 357:../../libDaisy//src/dev/oled_ssd130x.h ****         else
 1245              		.loc 18 357 42 view .LVU288
 1246 0014 01EBC313 		add	r3, r1, r3, lsl #7
 357:../../libDaisy//src/dev/oled_ssd130x.h ****         else
 1247              		.loc 18 357 48 view .LVU289
 1248 0018 0CFA02F2 		lsl	r2, ip, r2
 357:../../libDaisy//src/dev/oled_ssd130x.h ****         else
 1249              		.loc 18 357 42 view .LVU290
 1250 001c C118     		adds	r1, r0, r3
 1251              	.LVL75:
 357:../../libDaisy//src/dev/oled_ssd130x.h ****         else
 1252              		.loc 18 357 42 view .LVU291
 1253 001e 0B7D     		ldrb	r3, [r1, #20]	@ zero_extendqisi2
 1254 0020 1A43     		orrs	r2, r2, r3
 1255 0022 0A75     		strb	r2, [r1, #20]
 1256 0024 7047     		bx	lr
 1257              	.LVL76:
 1258              	.L73:
 1259              	.LBB759:
 1260              	.LBI759:
 352:../../libDaisy//src/dev/oled_ssd130x.h ****     {
 1261              		.loc 18 352 10 is_stmt 1 view .LVU292
 1262              	.LBB760:
 359:../../libDaisy//src/dev/oled_ssd130x.h ****     }
ARM GAS  C:\Users\halcyon\AppData\Local\Temp\ccgaMkHw.s 			page 63


 1263              		.loc 18 359 28 is_stmt 0 view .LVU293
 1264 0026 D308     		lsrs	r3, r2, #3
 1265              	.LVL77:
 359:../../libDaisy//src/dev/oled_ssd130x.h ****     }
 1266              		.loc 18 359 49 view .LVU294
 1267 0028 4FF0010C 		mov	ip, #1
 359:../../libDaisy//src/dev/oled_ssd130x.h ****     }
 1268              		.loc 18 359 55 view .LVU295
 1269 002c 02F00702 		and	r2, r2, #7
 1270              	.LVL78:
 359:../../libDaisy//src/dev/oled_ssd130x.h ****     }
 1271              		.loc 18 359 42 view .LVU296
 1272 0030 01EBC313 		add	r3, r1, r3, lsl #7
 359:../../libDaisy//src/dev/oled_ssd130x.h ****     }
 1273              		.loc 18 359 49 view .LVU297
 1274 0034 0CFA02FC 		lsl	ip, ip, r2
 359:../../libDaisy//src/dev/oled_ssd130x.h ****     }
 1275              		.loc 18 359 42 view .LVU298
 1276 0038 C118     		adds	r1, r0, r3
 1277              	.LVL79:
 359:../../libDaisy//src/dev/oled_ssd130x.h ****     }
 1278              		.loc 18 359 42 view .LVU299
 1279 003a 0A7D     		ldrb	r2, [r1, #20]	@ zero_extendqisi2
 1280 003c 22EA0C02 		bic	r2, r2, ip
 1281 0040 0A75     		strb	r2, [r1, #20]
 1282              	.LVL80:
 1283              	.L71:
 359:../../libDaisy//src/dev/oled_ssd130x.h ****     }
 1284              		.loc 18 359 42 view .LVU300
 1285              	.LBE760:
 1286              	.LBE759:
 1287              	.LBE758:
 1288              	.LBE757:
  45:../../libDaisy//src/hid/disp/oled_display.h **** 
 1289              		.loc 17 45 5 view .LVU301
 1290 0042 7047     		bx	lr
 1291              		.cfi_endproc
 1292              	.LFE3605:
 1294              		.section	.text._ZN5daisy25OneBitGraphicsDisplayImplINS_11OledDisplayINS_13SSD130xDriverILj128ELj64
 1295              		.align	1
 1296              		.p2align 2,,3
 1297              		.weak	_ZN5daisy25OneBitGraphicsDisplayImplINS_11OledDisplayINS_13SSD130xDriverILj128ELj64ENS_24SSD
 1298              		.syntax unified
 1299              		.thumb
 1300              		.thumb_func
 1301              		.fpu fpv5-d16
 1303              	_ZN5daisy25OneBitGraphicsDisplayImplINS_11OledDisplayINS_13SSD130xDriverILj128ELj64ENS_24SSD130x4Wi
 1304              	.LVL81:
 1305              	.LFB3606:
 221:../../libDaisy//src/hid/disp/display.h ****                   uint_fast8_t y1,
 1306              		.loc 19 221 10 is_stmt 1 view -0
 1307              		.cfi_startproc
 1308              		@ args = 8, pretend = 0, frame = 8
 1309              		@ frame_needed = 0, uses_anonymous_args = 0
 221:../../libDaisy//src/hid/disp/display.h ****                   uint_fast8_t y1,
 1310              		.loc 19 221 10 is_stmt 0 view .LVU303
 1311 0000 2DE9F04F 		push	{r4, r5, r6, r7, r8, r9, r10, fp, lr}
ARM GAS  C:\Users\halcyon\AppData\Local\Temp\ccgaMkHw.s 			page 64


 1312              		.cfi_def_cfa_offset 36
 1313              		.cfi_offset 4, -36
 1314              		.cfi_offset 5, -32
 1315              		.cfi_offset 6, -28
 1316              		.cfi_offset 7, -24
 1317              		.cfi_offset 8, -20
 1318              		.cfi_offset 9, -16
 1319              		.cfi_offset 10, -12
 1320              		.cfi_offset 11, -8
 1321              		.cfi_offset 14, -4
 1322 0004 83B0     		sub	sp, sp, #12
 1323              		.cfi_def_cfa_offset 48
 227:../../libDaisy//src/hid/disp/display.h ****         int_fast16_t deltaY = abs((int_fast16_t)y2 - (int_fast16_t)y1);
 1324              		.loc 19 227 52 view .LVU304
 1325 0006 5C1A     		subs	r4, r3, r1
 221:../../libDaisy//src/hid/disp/display.h ****                   uint_fast8_t y1,
 1326              		.loc 19 221 10 view .LVU305
 1327 0008 0C9E     		ldr	r6, [sp, #48]
 227:../../libDaisy//src/hid/disp/display.h ****         int_fast16_t deltaY = abs((int_fast16_t)y2 - (int_fast16_t)y1);
 1328              		.loc 19 227 22 view .LVU306
 1329 000a 002C     		cmp	r4, #0
 221:../../libDaisy//src/hid/disp/display.h ****                   uint_fast8_t y1,
 1330              		.loc 19 221 10 view .LVU307
 1331 000c 9DF83490 		ldrb	r9, [sp, #52]	@ zero_extendqisi2
 228:../../libDaisy//src/hid/disp/display.h ****         int_fast16_t signX  = ((x1 < x2) ? 1 : -1);
 1332              		.loc 19 228 52 view .LVU308
 1333 0010 A6EB0208 		sub	r8, r6, r2
 227:../../libDaisy//src/hid/disp/display.h ****         int_fast16_t deltaY = abs((int_fast16_t)y2 - (int_fast16_t)y1);
 1334              		.loc 19 227 22 view .LVU309
 1335 0014 B8BF     		it	lt
 1336 0016 6442     		rsblt	r4, r4, #0
 1337              	.LVL82:
 228:../../libDaisy//src/hid/disp/display.h ****         int_fast16_t signX  = ((x1 < x2) ? 1 : -1);
 1338              		.loc 19 228 22 view .LVU310
 1339 0018 B8F1000F 		cmp	r8, #0
 1340 001c B8BF     		it	lt
 1341 001e C8F10008 		rsblt	r8, r8, #0
 1342              	.LVL83:
 229:../../libDaisy//src/hid/disp/display.h ****         int_fast16_t signY  = ((y1 < y2) ? 1 : -1);
 1343              		.loc 19 229 42 view .LVU311
 1344 0022 8B42     		cmp	r3, r1
 1345 0024 8CBF     		ite	hi
 1346 0026 4FF0010A 		movhi	r10, #1
 1347 002a 4FF0FF3A 		movls	r10, #-1
 1348              	.LVL84:
 230:../../libDaisy//src/hid/disp/display.h ****         int_fast16_t error  = deltaX - deltaY;
 1349              		.loc 19 230 42 view .LVU312
 1350 002e 9642     		cmp	r6, r2
 231:../../libDaisy//src/hid/disp/display.h ****         int_fast16_t error2;
 1351              		.loc 19 231 22 view .LVU313
 1352 0030 A4EB080C 		sub	ip, r4, r8
 230:../../libDaisy//src/hid/disp/display.h ****         int_fast16_t error  = deltaX - deltaY;
 1353              		.loc 19 230 42 view .LVU314
 1354 0034 51D8     		bhi	.L76
 1355              	.LVL85:
 1356              	.LBB777:
 1357              	.LBI777:
ARM GAS  C:\Users\halcyon\AppData\Local\Temp\ccgaMkHw.s 			page 65


  42:../../libDaisy//src/hid/disp/oled_display.h ****     {
 1358              		.loc 17 42 10 is_stmt 1 discriminator 4 view .LVU315
 1359              	.LBB778:
 1360              	.LBI778:
 352:../../libDaisy//src/dev/oled_ssd130x.h ****     {
 1361              		.loc 18 352 10 discriminator 4 view .LVU316
 1362              	.LBE778:
 1363              	.LBE777:
 230:../../libDaisy//src/hid/disp/display.h ****         int_fast16_t error  = deltaX - deltaY;
 1364              		.loc 19 230 42 is_stmt 0 discriminator 4 view .LVU317
 1365 0036 4FF0FF35 		mov	r5, #-1
 1366              	.LBB794:
 1367              	.LBB788:
 1368              	.LBB779:
 354:../../libDaisy//src/dev/oled_ssd130x.h ****             return;
 1369              		.loc 18 354 9 discriminator 4 view .LVU318
 1370 003a 7F2B     		cmp	r3, #127
 1371              	.LBE779:
 1372              	.LBE788:
 1373              	.LBE794:
 230:../../libDaisy//src/hid/disp/display.h ****         int_fast16_t error  = deltaX - deltaY;
 1374              		.loc 19 230 42 discriminator 4 view .LVU319
 1375 003c 0195     		str	r5, [sp, #4]
 1376              	.LBB795:
 1377              	.LBB789:
 1378              	.LBB784:
 354:../../libDaisy//src/dev/oled_ssd130x.h ****             return;
 1379              		.loc 18 354 9 discriminator 4 view .LVU320
 1380 003e 12D8     		bhi	.L77
 1381 0040 3F2E     		cmp	r6, #63
 1382 0042 10D8     		bhi	.L77
 1383              	.LVL86:
 1384              	.L88:
 357:../../libDaisy//src/dev/oled_ssd130x.h ****         else
 1385              		.loc 18 357 28 view .LVU321
 1386 0044 F508     		lsrs	r5, r6, #3
 357:../../libDaisy//src/dev/oled_ssd130x.h ****         else
 1387              		.loc 18 357 54 view .LVU322
 1388 0046 06F0070E 		and	lr, r6, #7
 357:../../libDaisy//src/dev/oled_ssd130x.h ****         else
 1389              		.loc 18 357 48 view .LVU323
 1390 004a 0127     		movs	r7, #1
 357:../../libDaisy//src/dev/oled_ssd130x.h ****         else
 1391              		.loc 18 357 42 view .LVU324
 1392 004c 03EBC515 		add	r5, r3, r5, lsl #7
 1393 0050 0544     		add	r5, r5, r0
 356:../../libDaisy//src/dev/oled_ssd130x.h ****             buffer_[x + (y / 8) * width] |= (1 << (y % 8));
 1394              		.loc 18 356 9 view .LVU325
 1395 0052 B9F1000F 		cmp	r9, #0
 1396 0056 47D0     		beq	.L78
 357:../../libDaisy//src/dev/oled_ssd130x.h ****         else
 1397              		.loc 18 357 48 view .LVU326
 1398 0058 07FA0EF7 		lsl	r7, r7, lr
 357:../../libDaisy//src/dev/oled_ssd130x.h ****         else
 1399              		.loc 18 357 42 view .LVU327
 1400 005c 95F814E0 		ldrb	lr, [r5, #20]	@ zero_extendqisi2
 1401 0060 47EA0E07 		orr	r7, r7, lr
ARM GAS  C:\Users\halcyon\AppData\Local\Temp\ccgaMkHw.s 			page 66


 1402 0064 2F75     		strb	r7, [r5, #20]
 1403              	.LVL87:
 1404              	.L77:
 357:../../libDaisy//src/dev/oled_ssd130x.h ****         else
 1405              		.loc 18 357 42 view .LVU328
 1406              	.LBE784:
 1407              	.LBE789:
 1408              	.LBE795:
 239:../../libDaisy//src/hid/disp/display.h ****         {
 1409              		.loc 19 239 26 is_stmt 1 view .LVU329
 1410 0066 9642     		cmp	r6, r2
 1411 0068 01D1     		bne	.L81
 1412              	.L100:
 239:../../libDaisy//src/hid/disp/display.h ****         {
 1413              		.loc 19 239 26 is_stmt 0 view .LVU330
 1414 006a 8B42     		cmp	r3, r1
 1415 006c 29D0     		beq	.L74
 1416              	.L81:
 1417              	.LVL88:
 243:../../libDaisy//src/hid/disp/display.h ****             {
 1418              		.loc 19 243 23 view .LVU331
 1419 006e C8F10007 		rsb	r7, r8, #0
 1420              	.L83:
 1421              	.LVL89:
 1422              	.LBB796:
 1423              	.LBI796:
  42:../../libDaisy//src/hid/disp/oled_display.h ****     {
 1424              		.loc 17 42 10 is_stmt 1 view .LVU332
 1425              	.LBB797:
 1426              	.LBI797:
 352:../../libDaisy//src/dev/oled_ssd130x.h ****     {
 1427              		.loc 18 352 10 view .LVU333
 1428              	.LBB798:
 354:../../libDaisy//src/dev/oled_ssd130x.h ****             return;
 1429              		.loc 18 354 9 is_stmt 0 view .LVU334
 1430 0072 7F29     		cmp	r1, #127
 1431 0074 14D8     		bhi	.L84
 1432 0076 3F2A     		cmp	r2, #63
 1433 0078 12D8     		bhi	.L84
 357:../../libDaisy//src/dev/oled_ssd130x.h ****         else
 1434              		.loc 18 357 28 view .LVU335
 1435 007a D508     		lsrs	r5, r2, #3
 357:../../libDaisy//src/dev/oled_ssd130x.h ****         else
 1436              		.loc 18 357 54 view .LVU336
 1437 007c 02F0070B 		and	fp, r2, #7
 357:../../libDaisy//src/dev/oled_ssd130x.h ****         else
 1438              		.loc 18 357 48 view .LVU337
 1439 0080 4FF0010E 		mov	lr, #1
 357:../../libDaisy//src/dev/oled_ssd130x.h ****         else
 1440              		.loc 18 357 42 view .LVU338
 1441 0084 01EBC515 		add	r5, r1, r5, lsl #7
 1442 0088 0544     		add	r5, r5, r0
 356:../../libDaisy//src/dev/oled_ssd130x.h ****             buffer_[x + (y / 8) * width] |= (1 << (y % 8));
 1443              		.loc 18 356 9 view .LVU339
 1444 008a B9F1000F 		cmp	r9, #0
 1445 008e 1BD0     		beq	.L85
 357:../../libDaisy//src/dev/oled_ssd130x.h ****         else
ARM GAS  C:\Users\halcyon\AppData\Local\Temp\ccgaMkHw.s 			page 67


 1446              		.loc 18 357 48 view .LVU340
 1447 0090 0EFA0BFE 		lsl	lr, lr, fp
 357:../../libDaisy//src/dev/oled_ssd130x.h ****         else
 1448              		.loc 18 357 42 view .LVU341
 1449 0094 95F814B0 		ldrb	fp, [r5, #20]	@ zero_extendqisi2
 1450 0098 4EEA0B0E 		orr	lr, lr, fp
 1451 009c 85F814E0 		strb	lr, [r5, #20]
 1452              	.L84:
 1453              	.LVL90:
 357:../../libDaisy//src/dev/oled_ssd130x.h ****         else
 1454              		.loc 18 357 42 view .LVU342
 1455              	.LBE798:
 1456              	.LBE797:
 1457              	.LBE796:
 243:../../libDaisy//src/hid/disp/display.h ****             {
 1458              		.loc 19 243 13 view .LVU343
 1459 00a0 B7EB4C0F 		cmp	r7, ip, lsl #1
 242:../../libDaisy//src/hid/disp/display.h ****             if(error2 > -deltaY)
 1460              		.loc 19 242 20 view .LVU344
 1461 00a4 4FEA4C05 		lsl	r5, ip, #1
 1462              	.LVL91:
 243:../../libDaisy//src/hid/disp/display.h ****             {
 1463              		.loc 19 243 13 view .LVU345
 1464 00a8 02DA     		bge	.L86
 245:../../libDaisy//src/hid/disp/display.h ****                 x1 += signX;
 1465              		.loc 19 245 23 view .LVU346
 1466 00aa ACEB080C 		sub	ip, ip, r8
 1467              	.LVL92:
 246:../../libDaisy//src/hid/disp/display.h ****             }
 1468              		.loc 19 246 20 view .LVU347
 1469 00ae 5144     		add	r1, r1, r10
 1470              	.LVL93:
 1471              	.L86:
 249:../../libDaisy//src/hid/disp/display.h ****             {
 1472              		.loc 19 249 13 view .LVU348
 1473 00b0 AC42     		cmp	r4, r5
 1474 00b2 02DD     		ble	.L87
 252:../../libDaisy//src/hid/disp/display.h ****             }
 1475              		.loc 19 252 20 view .LVU349
 1476 00b4 019D     		ldr	r5, [sp, #4]
 1477              	.LVL94:
 251:../../libDaisy//src/hid/disp/display.h ****                 y1 += signY;
 1478              		.loc 19 251 23 view .LVU350
 1479 00b6 A444     		add	ip, ip, r4
 1480              	.LVL95:
 252:../../libDaisy//src/hid/disp/display.h ****             }
 1481              		.loc 19 252 20 view .LVU351
 1482 00b8 2A44     		add	r2, r2, r5
 1483              	.LVL96:
 1484              	.L87:
 239:../../libDaisy//src/hid/disp/display.h ****         {
 1485              		.loc 19 239 26 is_stmt 1 view .LVU352
 1486 00ba 9942     		cmp	r1, r3
 1487 00bc D9D1     		bne	.L83
 239:../../libDaisy//src/hid/disp/display.h ****         {
 1488              		.loc 19 239 26 is_stmt 0 view .LVU353
 1489 00be 9642     		cmp	r6, r2
ARM GAS  C:\Users\halcyon\AppData\Local\Temp\ccgaMkHw.s 			page 68


 1490 00c0 D7D1     		bne	.L83
 1491              	.L74:
 255:../../libDaisy//src/hid/disp/display.h **** 
 1492              		.loc 19 255 5 view .LVU354
 1493 00c2 03B0     		add	sp, sp, #12
 1494              		.cfi_remember_state
 1495              		.cfi_def_cfa_offset 36
 1496              		@ sp needed
 1497 00c4 BDE8F08F 		pop	{r4, r5, r6, r7, r8, r9, r10, fp, pc}
 1498              	.LVL97:
 1499              	.L85:
 1500              		.cfi_restore_state
 1501              	.LBB803:
 1502              	.LBB802:
 1503              	.LBB801:
 1504              	.LBB799:
 1505              	.LBI799:
 352:../../libDaisy//src/dev/oled_ssd130x.h ****     {
 1506              		.loc 18 352 10 is_stmt 1 view .LVU355
 1507              	.LBB800:
 359:../../libDaisy//src/dev/oled_ssd130x.h ****     }
 1508              		.loc 18 359 49 is_stmt 0 view .LVU356
 1509 00c8 0EFA0BFB 		lsl	fp, lr, fp
 359:../../libDaisy//src/dev/oled_ssd130x.h ****     }
 1510              		.loc 18 359 42 view .LVU357
 1511 00cc 95F814E0 		ldrb	lr, [r5, #20]	@ zero_extendqisi2
 1512 00d0 2EEA0B0E 		bic	lr, lr, fp
 1513 00d4 85F814E0 		strb	lr, [r5, #20]
 1514 00d8 E2E7     		b	.L84
 1515              	.LVL98:
 1516              	.L76:
 359:../../libDaisy//src/dev/oled_ssd130x.h ****     }
 1517              		.loc 18 359 42 view .LVU358
 1518              	.LBE800:
 1519              	.LBE799:
 1520              	.LBE801:
 1521              	.LBE802:
 1522              	.LBE803:
 1523              	.LBB804:
  42:../../libDaisy//src/hid/disp/oled_display.h ****     {
 1524              		.loc 17 42 10 is_stmt 1 view .LVU359
 1525              	.LBB790:
 352:../../libDaisy//src/dev/oled_ssd130x.h ****     {
 1526              		.loc 18 352 10 view .LVU360
 1527              	.LBE790:
 1528              	.LBE804:
 230:../../libDaisy//src/hid/disp/display.h ****         int_fast16_t error  = deltaX - deltaY;
 1529              		.loc 19 230 42 is_stmt 0 view .LVU361
 1530 00da 0125     		movs	r5, #1
 1531              	.LBB805:
 1532              	.LBB791:
 1533              	.LBB785:
 354:../../libDaisy//src/dev/oled_ssd130x.h ****             return;
 1534              		.loc 18 354 9 view .LVU362
 1535 00dc 7F2B     		cmp	r3, #127
 1536              	.LBE785:
 1537              	.LBE791:
ARM GAS  C:\Users\halcyon\AppData\Local\Temp\ccgaMkHw.s 			page 69


 1538              	.LBE805:
 230:../../libDaisy//src/hid/disp/display.h ****         int_fast16_t error  = deltaX - deltaY;
 1539              		.loc 19 230 42 view .LVU363
 1540 00de 0195     		str	r5, [sp, #4]
 1541              	.LBB806:
 1542              	.LBB792:
 1543              	.LBB786:
 354:../../libDaisy//src/dev/oled_ssd130x.h ****             return;
 1544              		.loc 18 354 9 view .LVU364
 1545 00e0 C5D8     		bhi	.L81
 1546 00e2 3F2E     		cmp	r6, #63
 1547 00e4 AED9     		bls	.L88
 1548 00e6 C2E7     		b	.L81
 1549              	.LVL99:
 1550              	.L78:
 1551              	.LBB780:
 1552              	.LBI780:
 352:../../libDaisy//src/dev/oled_ssd130x.h ****     {
 1553              		.loc 18 352 10 is_stmt 1 view .LVU365
 1554              	.LBB781:
 359:../../libDaisy//src/dev/oled_ssd130x.h ****     }
 1555              		.loc 18 359 49 is_stmt 0 view .LVU366
 1556 00e8 07FA0EFE 		lsl	lr, r7, lr
 359:../../libDaisy//src/dev/oled_ssd130x.h ****     }
 1557              		.loc 18 359 42 view .LVU367
 1558 00ec 2F7D     		ldrb	r7, [r5, #20]	@ zero_extendqisi2
 1559              	.LBE781:
 1560              	.LBE780:
 1561              	.LBE786:
 1562              	.LBE792:
 1563              	.LBE806:
 239:../../libDaisy//src/hid/disp/display.h ****         {
 1564              		.loc 19 239 26 view .LVU368
 1565 00ee 9642     		cmp	r6, r2
 1566              	.LBB807:
 1567              	.LBB793:
 1568              	.LBB787:
 1569              	.LBB783:
 1570              	.LBB782:
 359:../../libDaisy//src/dev/oled_ssd130x.h ****     }
 1571              		.loc 18 359 42 view .LVU369
 1572 00f0 27EA0E07 		bic	r7, r7, lr
 1573 00f4 2F75     		strb	r7, [r5, #20]
 1574              	.LVL100:
 359:../../libDaisy//src/dev/oled_ssd130x.h ****     }
 1575              		.loc 18 359 42 view .LVU370
 1576              	.LBE782:
 1577              	.LBE783:
 1578              	.LBE787:
 1579              	.LBE793:
 1580              	.LBE807:
 239:../../libDaisy//src/hid/disp/display.h ****         {
 1581              		.loc 19 239 26 is_stmt 1 view .LVU371
 1582 00f6 B8D0     		beq	.L100
 1583 00f8 B9E7     		b	.L81
 1584              		.cfi_endproc
 1585              	.LFE3606:
ARM GAS  C:\Users\halcyon\AppData\Local\Temp\ccgaMkHw.s 			page 70


 1587 00fa 00BF     		.section	.text._ZN5daisy25OneBitGraphicsDisplayImplINS_11OledDisplayINS_13SSD130xDriverILj128ELj64
 1588              		.align	1
 1589              		.p2align 2,,3
 1590              		.weak	_ZN5daisy25OneBitGraphicsDisplayImplINS_11OledDisplayINS_13SSD130xDriverILj128ELj64ENS_24SSD
 1591              		.syntax unified
 1592              		.thumb
 1593              		.thumb_func
 1594              		.fpu fpv5-d16
 1596              	_ZN5daisy25OneBitGraphicsDisplayImplINS_11OledDisplayINS_13SSD130xDriverILj128ELj64ENS_24SSD130x4Wi
 1597              	.LVL101:
 1598              	.LFB3751:
 283:../../libDaisy//src/hid/disp/display.h ****                  uint_fast8_t y,
 1599              		.loc 19 283 10 view -0
 1600              		.cfi_startproc
 1601              		@ args = 12, pretend = 0, frame = 8
 1602              		@ frame_needed = 0, uses_anonymous_args = 0
 283:../../libDaisy//src/hid/disp/display.h ****                  uint_fast8_t y,
 1603              		.loc 19 283 10 is_stmt 0 view .LVU373
 1604 0000 2DE9F04F 		push	{r4, r5, r6, r7, r8, r9, r10, fp, lr}
 1605              		.cfi_def_cfa_offset 36
 1606              		.cfi_offset 4, -36
 1607              		.cfi_offset 5, -32
 1608              		.cfi_offset 6, -28
 1609              		.cfi_offset 7, -24
 1610              		.cfi_offset 8, -20
 1611              		.cfi_offset 9, -16
 1612              		.cfi_offset 10, -12
 1613              		.cfi_offset 11, -8
 1614              		.cfi_offset 14, -4
 1615 0004 2DED068B 		vpush.64	{d8, d9, d10}
 1616              		.cfi_def_cfa_offset 60
 1617              		.cfi_offset 80, -60
 1618              		.cfi_offset 81, -56
 1619              		.cfi_offset 82, -52
 1620              		.cfi_offset 83, -48
 1621              		.cfi_offset 84, -44
 1622              		.cfi_offset 85, -40
 1623 0008 83B0     		sub	sp, sp, #12
 1624              		.cfi_def_cfa_offset 72
 283:../../libDaisy//src/hid/disp/display.h ****                  uint_fast8_t y,
 1625              		.loc 19 283 10 view .LVU374
 1626 000a 1F46     		mov	r7, r3
 1627 000c 8046     		mov	r8, r0
 1628 000e 0D46     		mov	r5, r1
 1629 0010 9DF85030 		ldrb	r3, [sp, #80]	@ zero_extendqisi2
 1630              	.LVL102:
 283:../../libDaisy//src/hid/disp/display.h ****                  uint_fast8_t y,
 1631              		.loc 19 283 10 view .LVU375
 1632 0014 1646     		mov	r6, r2
 1633 0016 0193     		str	r3, [sp, #4]
 306:../../libDaisy//src/hid/disp/display.h ****         {
 1634              		.loc 19 306 9 view .LVU376
 1635 0018 139B     		ldr	r3, [sp, #76]
 1636 001a 002B     		cmp	r3, #0
 1637 001c C0F22182 		blt	.L102
 313:../../libDaisy//src/hid/disp/display.h **** 
 1638              		.loc 19 313 27 view .LVU377
ARM GAS  C:\Users\halcyon\AppData\Local\Temp\ccgaMkHw.s 			page 71


 1639 0020 129A     		ldr	r2, [sp, #72]
 1640              	.LVL103:
 313:../../libDaisy//src/hid/disp/display.h **** 
 1641              		.loc 19 313 27 view .LVU378
 1642 0022 1344     		add	r3, r3, r2
 1643 0024 06EE103A 		vmov	s12, r3	@ int
 1644              	.LVL104:
 1645              	.L103:
 312:../../libDaisy//src/hid/disp/display.h ****         end_angle_rad   = deg2rad(start_angle + sweep);
 1646              		.loc 19 312 27 view .LVU379
 1647 0028 DDED127A 		vldr.32	s15, [sp, #72]	@ int
 313:../../libDaisy//src/hid/disp/display.h **** 
 1648              		.loc 19 313 27 view .LVU380
 1649 002c B8EEC66B 		vcvt.f64.s32	d6, s12
 312:../../libDaisy//src/hid/disp/display.h ****         end_angle_rad   = deg2rad(start_angle + sweep);
 1650              		.loc 19 312 27 view .LVU381
 1651 0030 9FEDCD4B 		vldr.64	d4, .L178
 1652 0034 B8EEE77B 		vcvt.f64.s32	d7, s15
 1653 0038 9FEDCD5B 		vldr.64	d5, .L178+8
 1654 003c 27EE047B 		vmul.f64	d7, d7, d4
 313:../../libDaisy//src/hid/disp/display.h **** 
 1655              		.loc 19 313 27 view .LVU382
 1656 0040 26EE046B 		vmul.f64	d6, d6, d4
 312:../../libDaisy//src/hid/disp/display.h ****         end_angle_rad   = deg2rad(start_angle + sweep);
 1657              		.loc 19 312 27 view .LVU383
 1658 0044 87EE050B 		vdiv.f64	d0, d7, d5
 313:../../libDaisy//src/hid/disp/display.h **** 
 1659              		.loc 19 313 27 view .LVU384
 1660 0048 86EE05AB 		vdiv.f64	d10, d6, d5
 312:../../libDaisy//src/hid/disp/display.h ****         end_angle_rad   = deg2rad(start_angle + sweep);
 1661              		.loc 19 312 25 view .LVU385
 1662 004c F7EEC08B 		vcvt.f32.f64	s17, d0
 1663              	.LVL105:
 1664              	.LBB840:
 1665              	.LBB841:
 1666              		.file 21 "c:\\program files\\daisytoolchain\\arm-none-eabi\\include\\c++\\10.2.1\\cmath"
   1:c:\program files\daisytoolchain\arm-none-eabi\include\c++\10.2.1\cmath **** // -*- C++ -*- C forwarding header.
   2:c:\program files\daisytoolchain\arm-none-eabi\include\c++\10.2.1\cmath **** 
   3:c:\program files\daisytoolchain\arm-none-eabi\include\c++\10.2.1\cmath **** // Copyright (C) 1997-2020 Free Software Foundation, Inc.
   4:c:\program files\daisytoolchain\arm-none-eabi\include\c++\10.2.1\cmath **** //
   5:c:\program files\daisytoolchain\arm-none-eabi\include\c++\10.2.1\cmath **** // This file is part of the GNU ISO C++ Library.  This library is free
   6:c:\program files\daisytoolchain\arm-none-eabi\include\c++\10.2.1\cmath **** // software; you can redistribute it and/or modify it under the
   7:c:\program files\daisytoolchain\arm-none-eabi\include\c++\10.2.1\cmath **** // terms of the GNU General Public License as published by the
   8:c:\program files\daisytoolchain\arm-none-eabi\include\c++\10.2.1\cmath **** // Free Software Foundation; either version 3, or (at your option)
   9:c:\program files\daisytoolchain\arm-none-eabi\include\c++\10.2.1\cmath **** // any later version.
  10:c:\program files\daisytoolchain\arm-none-eabi\include\c++\10.2.1\cmath **** 
  11:c:\program files\daisytoolchain\arm-none-eabi\include\c++\10.2.1\cmath **** // This library is distributed in the hope that it will be useful,
  12:c:\program files\daisytoolchain\arm-none-eabi\include\c++\10.2.1\cmath **** // but WITHOUT ANY WARRANTY; without even the implied warranty of
  13:c:\program files\daisytoolchain\arm-none-eabi\include\c++\10.2.1\cmath **** // MERCHANTABILITY or FITNESS FOR A PARTICULAR PURPOSE.  See the
  14:c:\program files\daisytoolchain\arm-none-eabi\include\c++\10.2.1\cmath **** // GNU General Public License for more details.
  15:c:\program files\daisytoolchain\arm-none-eabi\include\c++\10.2.1\cmath **** 
  16:c:\program files\daisytoolchain\arm-none-eabi\include\c++\10.2.1\cmath **** // Under Section 7 of GPL version 3, you are granted additional
  17:c:\program files\daisytoolchain\arm-none-eabi\include\c++\10.2.1\cmath **** // permissions described in the GCC Runtime Library Exception, version
  18:c:\program files\daisytoolchain\arm-none-eabi\include\c++\10.2.1\cmath **** // 3.1, as published by the Free Software Foundation.
  19:c:\program files\daisytoolchain\arm-none-eabi\include\c++\10.2.1\cmath **** 
  20:c:\program files\daisytoolchain\arm-none-eabi\include\c++\10.2.1\cmath **** // You should have received a copy of the GNU General Public License and
  21:c:\program files\daisytoolchain\arm-none-eabi\include\c++\10.2.1\cmath **** // a copy of the GCC Runtime Library Exception along with this program;
ARM GAS  C:\Users\halcyon\AppData\Local\Temp\ccgaMkHw.s 			page 72


  22:c:\program files\daisytoolchain\arm-none-eabi\include\c++\10.2.1\cmath **** // see the files COPYING3 and COPYING.RUNTIME respectively.  If not, see
  23:c:\program files\daisytoolchain\arm-none-eabi\include\c++\10.2.1\cmath **** // <http://www.gnu.org/licenses/>.
  24:c:\program files\daisytoolchain\arm-none-eabi\include\c++\10.2.1\cmath **** 
  25:c:\program files\daisytoolchain\arm-none-eabi\include\c++\10.2.1\cmath **** /** @file include/cmath
  26:c:\program files\daisytoolchain\arm-none-eabi\include\c++\10.2.1\cmath ****  *  This is a Standard C++ Library file.  You should @c \#include this file
  27:c:\program files\daisytoolchain\arm-none-eabi\include\c++\10.2.1\cmath ****  *  in your programs, rather than any of the @a *.h implementation files.
  28:c:\program files\daisytoolchain\arm-none-eabi\include\c++\10.2.1\cmath ****  *
  29:c:\program files\daisytoolchain\arm-none-eabi\include\c++\10.2.1\cmath ****  *  This is the C++ version of the Standard C Library header @c math.h,
  30:c:\program files\daisytoolchain\arm-none-eabi\include\c++\10.2.1\cmath ****  *  and its contents are (mostly) the same as that header, but are all
  31:c:\program files\daisytoolchain\arm-none-eabi\include\c++\10.2.1\cmath ****  *  contained in the namespace @c std (except for names which are defined
  32:c:\program files\daisytoolchain\arm-none-eabi\include\c++\10.2.1\cmath ****  *  as macros in C).
  33:c:\program files\daisytoolchain\arm-none-eabi\include\c++\10.2.1\cmath ****  */
  34:c:\program files\daisytoolchain\arm-none-eabi\include\c++\10.2.1\cmath **** 
  35:c:\program files\daisytoolchain\arm-none-eabi\include\c++\10.2.1\cmath **** //
  36:c:\program files\daisytoolchain\arm-none-eabi\include\c++\10.2.1\cmath **** // ISO C++ 14882: 26.5  C library
  37:c:\program files\daisytoolchain\arm-none-eabi\include\c++\10.2.1\cmath **** //
  38:c:\program files\daisytoolchain\arm-none-eabi\include\c++\10.2.1\cmath **** 
  39:c:\program files\daisytoolchain\arm-none-eabi\include\c++\10.2.1\cmath **** #pragma GCC system_header
  40:c:\program files\daisytoolchain\arm-none-eabi\include\c++\10.2.1\cmath **** 
  41:c:\program files\daisytoolchain\arm-none-eabi\include\c++\10.2.1\cmath **** #include <bits/c++config.h>
  42:c:\program files\daisytoolchain\arm-none-eabi\include\c++\10.2.1\cmath **** #include <bits/cpp_type_traits.h>
  43:c:\program files\daisytoolchain\arm-none-eabi\include\c++\10.2.1\cmath **** #include <ext/type_traits.h>
  44:c:\program files\daisytoolchain\arm-none-eabi\include\c++\10.2.1\cmath **** #define _GLIBCXX_INCLUDE_NEXT_C_HEADERS
  45:c:\program files\daisytoolchain\arm-none-eabi\include\c++\10.2.1\cmath **** #include_next <math.h>
  46:c:\program files\daisytoolchain\arm-none-eabi\include\c++\10.2.1\cmath **** #undef _GLIBCXX_INCLUDE_NEXT_C_HEADERS
  47:c:\program files\daisytoolchain\arm-none-eabi\include\c++\10.2.1\cmath **** #include <bits/std_abs.h>
  48:c:\program files\daisytoolchain\arm-none-eabi\include\c++\10.2.1\cmath **** 
  49:c:\program files\daisytoolchain\arm-none-eabi\include\c++\10.2.1\cmath **** #ifndef _GLIBCXX_CMATH
  50:c:\program files\daisytoolchain\arm-none-eabi\include\c++\10.2.1\cmath **** #define _GLIBCXX_CMATH 1
  51:c:\program files\daisytoolchain\arm-none-eabi\include\c++\10.2.1\cmath **** 
